ARM GAS  /var/folders/sw/9r4bn5156wxfd2589391fjvr0000gn/T//ccFPO499.s 			page 1


   1              		.cpu cortex-m4
   2              		.eabi_attribute 27, 1
   3              		.eabi_attribute 28, 1
   4              		.eabi_attribute 20, 1
   5              		.eabi_attribute 21, 1
   6              		.eabi_attribute 23, 3
   7              		.eabi_attribute 24, 1
   8              		.eabi_attribute 25, 1
   9              		.eabi_attribute 26, 1
  10              		.eabi_attribute 30, 2
  11              		.eabi_attribute 34, 1
  12              		.eabi_attribute 18, 4
  13              		.file	"process_image.c"
  14              		.text
  15              	.Ltext0:
  16              		.cfi_sections	.debug_frame
  17              		.section	.text.ProcessImage,"ax",%progbits
  18              		.align	1
  19              		.p2align 4,,15
  20              		.syntax unified
  21              		.thumb
  22              		.thumb_func
  23              		.fpu fpv4-sp-d16
  24              		.type	ProcessImage, %function
  25              	ProcessImage:
  26              	.LFB258:
  27              		.file 1 "process_image.c"
  28              		.loc 1 41 0
  29              		.cfi_startproc
  30              		@ args = 0, pretend = 0, frame = 8
  31              		@ frame_needed = 0, uses_anonymous_args = 0
  32              	.LVL0:
  33 0000 10B5     		push	{r4, lr}
  34              		.cfi_def_cfa_offset 8
  35              		.cfi_offset 4, -8
  36              		.cfi_offset 14, -4
  37              	.LBB34:
  38              	.LBB35:
  39              		.file 2 "../../lib/e-puck2_main-processor/ChibiOS//os/rt/include/chregistry.h"
  40              		.loc 2 135 0
  41 0002 074A     		ldr	r2, .L6
  42              	.LBE35:
  43              	.LBE34:
  44              		.loc 1 41 0
  45 0004 074B     		ldr	r3, .L6+4
  46              	.LBB38:
  47              	.LBB36:
  48              		.loc 2 135 0
  49 0006 9269     		ldr	r2, [r2, #24]
  50 0008 0749     		ldr	r1, .L6+8
  51              	.LBE36:
  52              	.LBE38:
  53              		.loc 1 41 0
  54 000a 1B68     		ldr	r3, [r3]
  55              	.LBB39:
  56              	.LBB40:
  57              		.file 3 "../../lib/e-puck2_main-processor/ChibiOS//os/rt/include/chbsem.h"
ARM GAS  /var/folders/sw/9r4bn5156wxfd2589391fjvr0000gn/T//ccFPO499.s 			page 2


  58              		.loc 3 143 0
  59 000c 074C     		ldr	r4, .L6+12
  60              	.LBE40:
  61              	.LBE39:
  62              	.LBB42:
  63              	.LBB37:
  64              		.loc 2 135 0
  65 000e 9161     		str	r1, [r2, #24]
  66              	.LBE37:
  67              	.LBE42:
  68              		.loc 1 41 0
  69 0010 82B0     		sub	sp, sp, #8
  70              		.cfi_def_cfa_offset 16
  71              		.loc 1 41 0
  72 0012 0193     		str	r3, [sp, #4]
  73              	.LVL1:
  74              	.L2:
  75              	.LBB43:
  76              	.LBB41:
  77              		.loc 3 143 0 discriminator 1
  78 0014 2046     		mov	r0, r4
  79 0016 FFF7FEFF 		bl	chSemWait
  80              	.LVL2:
  81              	.LBE41:
  82              	.LBE43:
  83              		.loc 1 53 0 discriminator 1
  84 001a FFF7FEFF 		bl	dcmi_get_last_image_ptr
  85              	.LVL3:
  86 001e F9E7     		b	.L2
  87              	.L7:
  88              		.align	2
  89              	.L6:
  90 0020 00000000 		.word	ch
  91 0024 00000000 		.word	__stack_chk_guard
  92 0028 00000000 		.word	.LANCHOR0
  93 002c 00000000 		.word	.LANCHOR1
  94              		.cfi_endproc
  95              	.LFE258:
  96              		.size	ProcessImage, .-ProcessImage
  97              		.section	.text.CaptureImage,"ax",%progbits
  98              		.align	1
  99              		.p2align 4,,15
 100              		.syntax unified
 101              		.thumb
 102              		.thumb_func
 103              		.fpu fpv4-sp-d16
 104              		.type	CaptureImage, %function
 105              	CaptureImage:
 106              	.LFB257:
 107              		.loc 1 18 0
 108              		.cfi_startproc
 109              		@ Volatile: function does not return.
 110              		@ args = 0, pretend = 0, frame = 8
 111              		@ frame_needed = 0, uses_anonymous_args = 0
 112              	.LVL4:
 113 0000 80B5     		push	{r7, lr}
 114              		.cfi_def_cfa_offset 8
ARM GAS  /var/folders/sw/9r4bn5156wxfd2589391fjvr0000gn/T//ccFPO499.s 			page 3


 115              		.cfi_offset 7, -8
 116              		.cfi_offset 14, -4
 117              	.LBB60:
 118              	.LBB61:
 119              		.loc 2 135 0
 120 0002 234C     		ldr	r4, .L14
 121              	.LBE61:
 122              	.LBE60:
 123              		.loc 1 18 0
 124 0004 234A     		ldr	r2, .L14+4
 125              	.LBB64:
 126              	.LBB62:
 127              		.loc 2 135 0
 128 0006 A369     		ldr	r3, [r4, #24]
 129 0008 2349     		ldr	r1, .L14+8
 130              	.LBE62:
 131              	.LBE64:
 132              		.loc 1 18 0
 133 000a 1668     		ldr	r6, [r2]
 134              	.LBB65:
 135              	.LBB63:
 136              		.loc 2 135 0
 137 000c 9961     		str	r1, [r3, #24]
 138              	.LBE63:
 139              	.LBE65:
 140              		.loc 1 18 0
 141 000e 86B0     		sub	sp, sp, #24
 142              		.cfi_def_cfa_offset 32
 143              		.loc 1 24 0
 144 0010 0223     		movs	r3, #2
 145 0012 2025     		movs	r5, #32
 146 0014 0A22     		movs	r2, #10
 147 0016 0021     		movs	r1, #0
 148 0018 0093     		str	r3, [sp]
 149              		.loc 1 18 0
 150 001a 0596     		str	r6, [sp, #20]
 151              		.loc 1 24 0
 152 001c 4FF42073 		mov	r3, #640
 153 0020 CDE90155 		strd	r5, r5, [sp, #4]
 154 0024 3020     		movs	r0, #48
 155              	.LVL5:
 156 0026 1D4E     		ldr	r6, .L14+12
 157              	.LBB66:
 158              	.LBB67:
 159              	.LBB68:
 160              	.LBB69:
 161              		.file 4 "../../lib/e-puck2_main-processor/ChibiOS//os/rt/include/chsys.h"
 162              		.loc 4 367 0
 163 0028 1D4F     		ldr	r7, .L14+16
 164              	.LBE69:
 165              	.LBE68:
 166              	.LBE67:
 167              	.LBE66:
 168              		.loc 1 24 0
 169 002a FFF7FEFF 		bl	po8030_advanced_config
 170              	.LVL6:
 171              		.loc 1 25 0
ARM GAS  /var/folders/sw/9r4bn5156wxfd2589391fjvr0000gn/T//ccFPO499.s 			page 4


 172 002e FFF7FEFF 		bl	dcmi_enable_double_buffering
 173              	.LVL7:
 174              		.loc 1 26 0
 175 0032 0020     		movs	r0, #0
 176 0034 FFF7FEFF 		bl	dcmi_set_capture_mode
 177              	.LVL8:
 178              	.LBB87:
 179              	.LBB84:
 180              	.LBB74:
 181              	.LBB75:
 182              		.loc 3 271 0
 183 0038 B046     		mov	r8, r6
 184              	.LBE75:
 185              	.LBE74:
 186              	.LBE84:
 187              	.LBE87:
 188              		.loc 1 27 0
 189 003a FFF7FEFF 		bl	dcmi_prepare
 190              	.LVL9:
 191 003e 13E0     		b	.L11
 192              	.LVL10:
 193              	.L9:
 194              	.LBB88:
 195              	.LBB85:
 196              		.loc 3 286 0
 197 0040 FFF7FEFF 		bl	chSchRescheduleS
 198              	.LVL11:
 199              	.LBB77:
 200              	.LBB73:
 201              		.loc 4 360 0
 202 0044 FFF7FEFF 		bl	_dbg_check_unlock
 203              	.LVL12:
 204              		.loc 4 361 0
 205 0048 FFF7FEFF 		bl	_stats_stop_measure_crit_thd
 206              	.LVL13:
 207              		.loc 4 367 0
 208 004c 2368     		ldr	r3, [r4]
 209 004e A342     		cmp	r3, r4
 210 0050 07D0     		beq	.L10
 211 0052 A269     		ldr	r2, [r4, #24]
 212 0054 9B68     		ldr	r3, [r3, #8]
 213 0056 9268     		ldr	r2, [r2, #8]
 214 0058 9A42     		cmp	r2, r3
 215 005a 02D2     		bcs	.L10
 216 005c 3846     		mov	r0, r7
 217 005e FFF7FEFF 		bl	chSysHalt
 218              	.LVL14:
 219              	.L10:
 220              	.LBB70:
 221              	.LBB71:
 222              	.LBB72:
 223              		.file 5 "../../lib/e-puck2_main-processor/ChibiOS//os/ext/CMSIS/include/core_cmFunc.h"
 224              		.loc 5 546 0
 225 0062 0023     		movs	r3, #0
 226              		.syntax unified
 227              	@ 546 "../../lib/e-puck2_main-processor/ChibiOS//os/ext/CMSIS/include/core_cmFunc.h" 1
 228 0064 83F31188 		MSR basepri, r3
ARM GAS  /var/folders/sw/9r4bn5156wxfd2589391fjvr0000gn/T//ccFPO499.s 			page 5


 229              	@ 0 "" 2
 230              	.LVL15:
 231              		.thumb
 232              		.syntax unified
 233              	.L11:
 234              	.LBE72:
 235              	.LBE71:
 236              	.LBE70:
 237              	.LBE73:
 238              	.LBE77:
 239              	.LBE85:
 240              	.LBE88:
 241              		.loc 1 31 0 discriminator 1
 242 0068 FFF7FEFF 		bl	dcmi_capture_start
 243              	.LVL16:
 244              		.loc 1 33 0 discriminator 1
 245 006c FFF7FEFF 		bl	wait_image_ready
 246              	.LVL17:
 247              	.LBB89:
 248              	.LBB86:
 249              	.LBB78:
 250              	.LBB79:
 251              	.LBB80:
 252              	.LBB81:
 253              	.LBB82:
 254              		.loc 5 546 0 discriminator 1
 255              		.syntax unified
 256              	@ 546 "../../lib/e-puck2_main-processor/ChibiOS//os/ext/CMSIS/include/core_cmFunc.h" 1
 257 0070 85F31188 		MSR basepri, r5
 258              	@ 0 "" 2
 259              	.LVL18:
 260              		.thumb
 261              		.syntax unified
 262              	.LBE82:
 263              	.LBE81:
 264              	.LBE80:
 265              		.loc 4 349 0 discriminator 1
 266 0074 FFF7FEFF 		bl	_stats_start_measure_crit_thd
 267              	.LVL19:
 268              		.loc 4 350 0 discriminator 1
 269 0078 FFF7FEFF 		bl	_dbg_check_lock
 270              	.LVL20:
 271              	.LBE79:
 272              	.LBE78:
 273              	.LBB83:
 274              	.LBB76:
 275              		.loc 3 268 0 discriminator 1
 276 007c FFF7FEFF 		bl	chDbgCheckClassI
 277              	.LVL21:
 278              		.loc 3 270 0 discriminator 1
 279 0080 B368     		ldr	r3, [r6, #8]
 280 0082 002B     		cmp	r3, #0
 281 0084 DCDC     		bgt	.L9
 282              		.loc 3 271 0
 283 0086 4046     		mov	r0, r8
 284 0088 FFF7FEFF 		bl	chSemSignalI
 285              	.LVL22:
ARM GAS  /var/folders/sw/9r4bn5156wxfd2589391fjvr0000gn/T//ccFPO499.s 			page 6


 286 008c D8E7     		b	.L9
 287              	.L15:
 288 008e 00BF     		.align	2
 289              	.L14:
 290 0090 00000000 		.word	ch
 291 0094 00000000 		.word	__stack_chk_guard
 292 0098 00000000 		.word	.LANCHOR2
 293 009c 00000000 		.word	.LANCHOR1
 294 00a0 00000000 		.word	.LANCHOR3
 295              	.LBE76:
 296              	.LBE83:
 297              	.LBE86:
 298              	.LBE89:
 299              		.cfi_endproc
 300              	.LFE257:
 301              		.size	CaptureImage, .-CaptureImage
 302              		.section	.text.get_distance_cm,"ax",%progbits
 303              		.align	1
 304              		.p2align 4,,15
 305              		.global	get_distance_cm
 306              		.syntax unified
 307              		.thumb
 308              		.thumb_func
 309              		.fpu fpv4-sp-d16
 310              		.type	get_distance_cm, %function
 311              	get_distance_cm:
 312              	.LFB259:
 313              		.loc 1 61 0
 314              		.cfi_startproc
 315              		@ args = 0, pretend = 0, frame = 8
 316              		@ frame_needed = 0, uses_anonymous_args = 0
 317 0000 00B5     		push	{lr}
 318              		.cfi_def_cfa_offset 4
 319              		.cfi_offset 14, -4
 320 0002 074B     		ldr	r3, .L20
 321 0004 83B0     		sub	sp, sp, #12
 322              		.cfi_def_cfa_offset 16
 323              		.loc 1 61 0
 324 0006 1A68     		ldr	r2, [r3]
 325 0008 0192     		str	r2, [sp, #4]
 326              		.loc 1 63 0
 327 000a 019A     		ldr	r2, [sp, #4]
 328 000c 1B68     		ldr	r3, [r3]
 329 000e 9A42     		cmp	r2, r3
 330 0010 04D1     		bne	.L19
 331 0012 9FED040A 		vldr.32	s0, .L20+4
 332 0016 03B0     		add	sp, sp, #12
 333              		.cfi_remember_state
 334              		.cfi_def_cfa_offset 4
 335              		@ sp needed
 336 0018 5DF804FB 		ldr	pc, [sp], #4
 337              	.L19:
 338              		.cfi_restore_state
 339 001c FFF7FEFF 		bl	__stack_chk_fail
 340              	.LVL23:
 341              	.L21:
 342              		.align	2
ARM GAS  /var/folders/sw/9r4bn5156wxfd2589391fjvr0000gn/T//ccFPO499.s 			page 7


 343              	.L20:
 344 0020 00000000 		.word	__stack_chk_guard
 345 0024 00000000 		.word	0
 346              		.cfi_endproc
 347              	.LFE259:
 348              		.size	get_distance_cm, .-get_distance_cm
 349              		.section	.text.process_image_start,"ax",%progbits
 350              		.align	1
 351              		.p2align 4,,15
 352              		.global	process_image_start
 353              		.syntax unified
 354              		.thumb
 355              		.thumb_func
 356              		.fpu fpv4-sp-d16
 357              		.type	process_image_start, %function
 358              	process_image_start:
 359              	.LFB260:
 360              		.loc 1 65 0
 361              		.cfi_startproc
 362              		@ args = 0, pretend = 0, frame = 8
 363              		@ frame_needed = 0, uses_anonymous_args = 0
 364 0000 30B5     		push	{r4, r5, lr}
 365              		.cfi_def_cfa_offset 12
 366              		.cfi_offset 4, -12
 367              		.cfi_offset 5, -8
 368              		.cfi_offset 14, -4
 369 0002 0E4C     		ldr	r4, .L26
 370              		.loc 1 66 0
 371 0004 0E4B     		ldr	r3, .L26+4
 372              		.loc 1 65 0
 373 0006 2268     		ldr	r2, [r4]
 374              		.loc 1 66 0
 375 0008 0E48     		ldr	r0, .L26+8
 376              		.loc 1 65 0
 377 000a 85B0     		sub	sp, sp, #20
 378              		.cfi_def_cfa_offset 32
 379              		.loc 1 66 0
 380 000c 0025     		movs	r5, #0
 381              		.loc 1 65 0
 382 000e 0392     		str	r2, [sp, #12]
 383              		.loc 1 66 0
 384 0010 4FF4AF61 		mov	r1, #1400
 385 0014 4022     		movs	r2, #64
 386 0016 0095     		str	r5, [sp]
 387 0018 FFF7FEFF 		bl	chThdCreateStatic
 388              	.LVL24:
 389              		.loc 1 67 0
 390 001c 0A4B     		ldr	r3, .L26+12
 391 001e 0095     		str	r5, [sp]
 392 0020 4022     		movs	r2, #64
 393 0022 0A48     		ldr	r0, .L26+16
 394 0024 4FF41E71 		mov	r1, #632
 395 0028 FFF7FEFF 		bl	chThdCreateStatic
 396              	.LVL25:
 397              		.loc 1 68 0
 398 002c 039A     		ldr	r2, [sp, #12]
 399 002e 2368     		ldr	r3, [r4]
ARM GAS  /var/folders/sw/9r4bn5156wxfd2589391fjvr0000gn/T//ccFPO499.s 			page 8


 400 0030 9A42     		cmp	r2, r3
 401 0032 01D1     		bne	.L25
 402 0034 05B0     		add	sp, sp, #20
 403              		.cfi_remember_state
 404              		.cfi_def_cfa_offset 12
 405              		@ sp needed
 406 0036 30BD     		pop	{r4, r5, pc}
 407              	.L25:
 408              		.cfi_restore_state
 409 0038 FFF7FEFF 		bl	__stack_chk_fail
 410              	.LVL26:
 411              	.L27:
 412              		.align	2
 413              	.L26:
 414 003c 00000000 		.word	__stack_chk_guard
 415 0040 00000000 		.word	ProcessImage
 416 0044 00000000 		.word	.LANCHOR4
 417 0048 00000000 		.word	CaptureImage
 418 004c 00000000 		.word	.LANCHOR5
 419              		.cfi_endproc
 420              	.LFE260:
 421              		.size	process_image_start, .-process_image_start
 422              		.section	.bss.waCaptureImage,"aw",%nobits
 423              		.align	3
 424              		.set	.LANCHOR5,. + 0
 425              		.type	waCaptureImage, %object
 426              		.size	waCaptureImage, 632
 427              	waCaptureImage:
 428 0000 00000000 		.space	632
 428      00000000 
 428      00000000 
 428      00000000 
 428      00000000 
 429              		.section	.bss.waProcessImage,"aw",%nobits
 430              		.align	3
 431              		.set	.LANCHOR4,. + 0
 432              		.type	waProcessImage, %object
 433              		.size	waProcessImage, 1400
 434              	waProcessImage:
 435 0000 00000000 		.space	1400
 435      00000000 
 435      00000000 
 435      00000000 
 435      00000000 
 436              		.section	.data.image_ready_sem,"aw",%progbits
 437              		.align	2
 438              		.set	.LANCHOR1,. + 0
 439              		.type	image_ready_sem, %object
 440              		.size	image_ready_sem, 12
 441              	image_ready_sem:
 442 0000 00000000 		.word	image_ready_sem
 443 0004 00000000 		.word	image_ready_sem
 444 0008 00000000 		.word	0
 445              		.section	.rodata.__FUNCTION__.11329,"a",%progbits
 446              		.align	2
 447              		.set	.LANCHOR2,. + 0
 448              		.type	__FUNCTION__.11329, %object
ARM GAS  /var/folders/sw/9r4bn5156wxfd2589391fjvr0000gn/T//ccFPO499.s 			page 9


 449              		.size	__FUNCTION__.11329, 13
 450              	__FUNCTION__.11329:
 451 0000 43617074 		.ascii	"CaptureImage\000"
 451      75726549 
 451      6D616765 
 451      00
 452              		.section	.rodata.__FUNCTION__.11335,"a",%progbits
 453              		.align	2
 454              		.set	.LANCHOR0,. + 0
 455              		.type	__FUNCTION__.11335, %object
 456              		.size	__FUNCTION__.11335, 13
 457              	__FUNCTION__.11335:
 458 0000 50726F63 		.ascii	"ProcessImage\000"
 458      65737349 
 458      6D616765 
 458      00
 459              		.section	.rodata.__func__.7153,"a",%progbits
 460              		.align	2
 461              		.set	.LANCHOR3,. + 0
 462              		.type	__func__.7153, %object
 463              		.size	__func__.7153, 12
 464              	__func__.7153:
 465 0000 63685379 		.ascii	"chSysUnlock\000"
 465      73556E6C 
 465      6F636B00 
 466              		.text
 467              	.Letext0:
 468              		.file 6 "/Applications/Eclipse_e-puck2.app/Contents/Eclipse_e-puck2/Tools/gcc-arm-none-eabi-7-2017
 469              		.file 7 "/Applications/Eclipse_e-puck2.app/Contents/Eclipse_e-puck2/Tools/gcc-arm-none-eabi-7-2017
 470              		.file 8 "/Applications/Eclipse_e-puck2.app/Contents/Eclipse_e-puck2/Tools/gcc-arm-none-eabi-7-2017
 471              		.file 9 "../../lib/e-puck2_main-processor/ChibiOS//os/rt/ports/ARMCMx/compilers/GCC/chtypes.h"
 472              		.file 10 "../../lib/e-puck2_main-processor/ChibiOS//os/rt/include/chsystypes.h"
 473              		.file 11 "../../lib/e-puck2_main-processor/ChibiOS//os/rt/include/chschd.h"
 474              		.file 12 "../../lib/e-puck2_main-processor/ChibiOS//os/ext/CMSIS/include/core_cm4.h"
 475              		.file 13 "../../lib/e-puck2_main-processor/ChibiOS//os/ext/CMSIS/ST/system_stm32f4xx.h"
 476              		.file 14 "../../lib/e-puck2_main-processor/ChibiOS//os/ext/CMSIS/ST/stm32f407xx.h"
 477              		.file 15 "../../lib/e-puck2_main-processor/ChibiOS//os/rt/ports/ARMCMx/chcore.h"
 478              		.file 16 "../../lib/e-puck2_main-processor/ChibiOS//os/rt/ports/ARMCMx/chcore_v7m.h"
 479              		.file 17 "../../lib/e-puck2_main-processor/ChibiOS//os/rt/include/chdebug.h"
 480              		.file 18 "../../lib/e-puck2_main-processor/ChibiOS//os/rt/include/chtm.h"
 481              		.file 19 "../../lib/e-puck2_main-processor/ChibiOS//os/rt/include/chstats.h"
 482              		.file 20 "../../lib/e-puck2_main-processor/ChibiOS//os/rt/include/chsem.h"
 483              		.file 21 "../../lib/e-puck2_main-processor/ChibiOS//os/rt/include/chmtx.h"
 484              		.file 22 "../../lib/e-puck2_main-processor/ChibiOS//os/rt/include/chevents.h"
 485              		.file 23 "../../lib/e-puck2_main-processor/ChibiOS//os/rt/include/chqueues.h"
 486              		.file 24 "../../lib/e-puck2_main-processor/ChibiOS//os/hal/ports/STM32/STM32F4xx/stm32_dma.h"
 487              		.file 25 "../../lib/e-puck2_main-processor/ChibiOS//os/hal/include/hal_ioblock.h"
 488              		.file 26 "../../lib/e-puck2_main-processor/ChibiOS//os/hal/ports/STM32/LLD/GPIOv2/pal_lld.h"
 489              		.file 27 "../../lib/e-puck2_main-processor/ChibiOS//os/hal/include/adc.h"
 490              		.file 28 "../../lib/e-puck2_main-processor/ChibiOS//os/hal/ports/STM32/STM32F4xx/adc_lld.h"
 491              		.file 29 "../../lib/e-puck2_main-processor/ChibiOS//os/hal/include/can.h"
 492              		.file 30 "../../lib/e-puck2_main-processor/ChibiOS//os/hal/ports/STM32/LLD/can_lld.h"
 493              		.file 31 "../../lib/e-puck2_main-processor/ChibiOS//os/hal/include/dac.h"
 494              		.file 32 "../../lib/e-puck2_main-processor/ChibiOS//os/hal/ports/STM32/LLD/DACv1/dac_lld.h"
 495              		.file 33 "../../lib/e-puck2_main-processor/ChibiOS//os/hal/include/ext.h"
 496              		.file 34 "../../lib/e-puck2_main-processor/ChibiOS//os/hal/ports/STM32/LLD/ext_lld.h"
 497              		.file 35 "../../lib/e-puck2_main-processor/ChibiOS//os/hal/include/gpt.h"
ARM GAS  /var/folders/sw/9r4bn5156wxfd2589391fjvr0000gn/T//ccFPO499.s 			page 10


 498              		.file 36 "../../lib/e-puck2_main-processor/ChibiOS//os/hal/ports/STM32/LLD/TIMv1/gpt_lld.h"
 499              		.file 37 "../../lib/e-puck2_main-processor/ChibiOS//os/hal/ports/STM32/LLD/TIMv1/stm32_tim.h"
 500              		.file 38 "../../lib/e-puck2_main-processor/ChibiOS//os/hal/include/i2c.h"
 501              		.file 39 "../../lib/e-puck2_main-processor/ChibiOS//os/hal/ports/STM32/LLD/I2Cv1/i2c_lld.h"
 502              		.file 40 "../../lib/e-puck2_main-processor/ChibiOS//os/hal/include/i2s.h"
 503              		.file 41 "../../lib/e-puck2_main-processor/ChibiOS//os/hal/ports/STM32/LLD/SPIv1/i2s_lld.h"
 504              		.file 42 "../../lib/e-puck2_main-processor/ChibiOS//os/hal/include/pwm.h"
 505              		.file 43 "../../lib/e-puck2_main-processor/ChibiOS//os/hal/ports/STM32/LLD/TIMv1/pwm_lld.h"
 506              		.file 44 "../../lib/e-puck2_main-processor/ChibiOS//os/hal/include/serial.h"
 507              		.file 45 "../../lib/e-puck2_main-processor/ChibiOS//os/hal/ports/STM32/LLD/USARTv1/serial_lld.h"
 508              		.file 46 "../../lib/e-puck2_main-processor/ChibiOS//os/hal/include/sdc.h"
 509              		.file 47 "../../lib/e-puck2_main-processor/ChibiOS//os/hal/ports/STM32/LLD/sdc_lld.h"
 510              		.file 48 "../../lib/e-puck2_main-processor/ChibiOS//os/hal/include/spi.h"
 511              		.file 49 "../../lib/e-puck2_main-processor/ChibiOS//os/hal/ports/STM32/LLD/SPIv1/spi_lld.h"
 512              		.file 50 "../../lib/e-puck2_main-processor/ChibiOS//os/hal/include/usb.h"
 513              		.file 51 "../../lib/e-puck2_main-processor/ChibiOS//os/hal/ports/STM32/LLD/OTGv1/usb_lld.h"
 514              		.file 52 "../../lib/e-puck2_main-processor/ChibiOS//os/hal/ports/STM32/LLD/OTGv1/stm32_otg.h"
 515              		.file 53 "../../lib/e-puck2_main-processor/ChibiOS//os/hal/include/serial_usb.h"
 516              		.file 54 "../../lib/e-puck2_main-processor/src/usbcfg.h"
 517              		.file 55 "../../lib/e-puck2_main-processor/ChibiOS_ext/os/hal/include/../ports/STM32/STM32F4xx/dcm
 518              		.file 56 "../../lib/e-puck2_main-processor/src/camera/po8030.h"
 519              		.file 57 "../../lib/e-puck2_main-processor/src/camera/dcmi_camera.h"
 520              		.file 58 "/Applications/Eclipse_e-puck2.app/Contents/Eclipse_e-puck2/Tools/gcc-arm-none-eabi-7-201
 521              		.file 59 "/Applications/Eclipse_e-puck2.app/Contents/Eclipse_e-puck2/Tools/gcc-arm-none-eabi-7-201
 522              		.file 60 "/Applications/Eclipse_e-puck2.app/Contents/Eclipse_e-puck2/Tools/gcc-arm-none-eabi-7-201
 523              		.file 61 "../../lib/e-puck2_main-processor/src/msgbus/messagebus.h"
 524              		.file 62 "/Applications/Eclipse_e-puck2.app/Contents/Eclipse_e-puck2/Tools/gcc-arm-none-eabi-7-201
 525              		.file 63 "/Applications/Eclipse_e-puck2.app/Contents/Eclipse_e-puck2/Tools/gcc-arm-none-eabi-7-201
 526              		.file 64 "../../lib/e-puck2_main-processor/src/parameter/parameter.h"
 527              		.file 65 "./main.h"
 528              		.file 66 "../../lib/e-puck2_main-processor/ChibiOS//os/rt/include/chthreads.h"