ARM GAS  /var/folders/sw/9r4bn5156wxfd2589391fjvr0000gn/T//cceiUNQt.s 			page 1


   1              		.cpu cortex-m4
   2              		.eabi_attribute 27, 1
   3              		.eabi_attribute 28, 1
   4              		.eabi_attribute 20, 1
   5              		.eabi_attribute 21, 1
   6              		.eabi_attribute 23, 3
   7              		.eabi_attribute 24, 1
   8              		.eabi_attribute 25, 1
   9              		.eabi_attribute 26, 1
  10              		.eabi_attribute 30, 2
  11              		.eabi_attribute 34, 1
  12              		.eabi_attribute 18, 4
  13              		.file	"audio_processing.c"
  14              		.text
  15              	.Ltext0:
  16              		.cfi_sections	.debug_frame
  17              		.section	.text.sound_remote,"ax",%progbits
  18              		.align	1
  19              		.p2align 4,,15
  20              		.global	sound_remote
  21              		.syntax unified
  22              		.thumb
  23              		.thumb_func
  24              		.fpu fpv4-sp-d16
  25              		.type	sound_remote, %function
  26              	sound_remote:
  27              	.LFB293:
  28              		.file 1 "audio_processing.c"
  29              		.loc 1 52 0
  30              		.cfi_startproc
  31              		@ args = 0, pretend = 0, frame = 8
  32              		@ frame_needed = 0, uses_anonymous_args = 0
  33              	.LVL0:
  34 0000 00B5     		push	{lr}
  35              		.cfi_def_cfa_offset 4
  36              		.cfi_offset 14, -4
  37 0002 2B49     		ldr	r1, .L26
  38              		.loc 1 53 0
  39 0004 9FED2B7A 		vldr.32	s14, .L26+4
  40              		.loc 1 52 0
  41 0008 0B68     		ldr	r3, [r1]
  42 000a 83B0     		sub	sp, sp, #12
  43              		.cfi_def_cfa_offset 16
  44 000c 2830     		adds	r0, r0, #40
  45              	.LVL1:
  46              		.loc 1 52 0
  47 000e 0193     		str	r3, [sp, #4]
  48              	.LVL2:
  49              		.loc 1 54 0
  50 0010 4FF0FF32 		mov	r2, #-1
  51              		.loc 1 52 0
  52 0014 0A23     		movs	r3, #10
  53              	.LVL3:
  54              	.L4:
  55              	.LBB30:
  56              		.loc 1 60 0
  57 0016 F0EC017A 		vldmia.32	r0!, {s15}
ARM GAS  /var/folders/sw/9r4bn5156wxfd2589391fjvr0000gn/T//cceiUNQt.s 			page 2


  58 001a F4EEC77A 		vcmpe.f32	s15, s14
  59 001e F1EE10FA 		vmrs	APSR_nzcv, FPSCR
  60              	.LVL4:
  61              		.loc 1 62 0
  62 0022 C8BF     		it	gt
  63 0024 1AB2     		sxthgt	r2, r3
  64              	.LVL5:
  65 0026 03F10103 		add	r3, r3, #1
  66              	.LVL6:
  67              		.loc 1 61 0
  68 002a C8BF     		it	gt
  69 002c B0EE677A 		vmovgt.f32	s14, s15
  70              	.LVL7:
  71              		.loc 1 59 0
  72 0030 1F2B     		cmp	r3, #31
  73 0032 F0D1     		bne	.L4
  74              	.LBE30:
  75              		.loc 1 67 0
  76 0034 92B2     		uxth	r2, r2
  77 0036 A2F10F03 		sub	r3, r2, #15
  78 003a 022B     		cmp	r3, #2
  79 003c 1CD9     		bls	.L22
  80              		.loc 1 75 0
  81 003e A2F11203 		sub	r3, r2, #18
  82 0042 022B     		cmp	r3, #2
  83 0044 0DD9     		bls	.L23
  84              		.loc 1 83 0
  85 0046 A2F11603 		sub	r3, r2, #22
  86 004a 022B     		cmp	r3, #2
  87 004c 1CD9     		bls	.L24
  88              		.loc 1 91 0
  89 004e 193A     		subs	r2, r2, #25
  90 0050 022A     		cmp	r2, #2
  91              		.loc 1 95 0
  92 0052 019A     		ldr	r2, [sp, #4]
  93 0054 0B68     		ldr	r3, [r1]
  94              		.loc 1 91 0
  95 0056 22D9     		bls	.L25
  96              		.loc 1 105 0
  97 0058 9A42     		cmp	r2, r3
  98 005a 13D1     		bne	.L18
  99 005c 03B0     		add	sp, sp, #12
 100              		.cfi_remember_state
 101              		.cfi_def_cfa_offset 4
 102              		@ sp needed
 103 005e 5DF804FB 		ldr	pc, [sp], #4
 104              	.L23:
 105              		.cfi_restore_state
 106              	.LVL8:
 107              		.loc 1 79 0
 108 0062 019A     		ldr	r2, [sp, #4]
 109 0064 0B68     		ldr	r3, [r1]
 110 0066 9A42     		cmp	r2, r3
 111 0068 08BF     		it	eq
 112 006a 0120     		moveq	r0, #1
 113 006c 0AD1     		bne	.L18
 114              	.LVL9:
ARM GAS  /var/folders/sw/9r4bn5156wxfd2589391fjvr0000gn/T//cceiUNQt.s 			page 3


 115              	.L17:
 116              		.loc 1 105 0
 117 006e 03B0     		add	sp, sp, #12
 118              		.cfi_remember_state
 119              		.cfi_def_cfa_offset 4
 120              		@ sp needed
 121 0070 5DF804EB 		ldr	lr, [sp], #4
 122              		.cfi_restore 14
 123              		.cfi_def_cfa_offset 0
 124              		.loc 1 95 0
 125 0074 FFF7FEBF 		b	state_compare
 126              	.LVL10:
 127              	.L22:
 128              		.cfi_restore_state
 129              		.loc 1 71 0
 130 0078 019A     		ldr	r2, [sp, #4]
 131 007a 0B68     		ldr	r3, [r1]
 132 007c 9A42     		cmp	r2, r3
 133 007e 08BF     		it	eq
 134 0080 0020     		moveq	r0, #0
 135 0082 F4D0     		beq	.L17
 136              	.LVL11:
 137              	.L18:
 138              		.loc 1 105 0
 139 0084 FFF7FEFF 		bl	__stack_chk_fail
 140              	.LVL12:
 141              	.L24:
 142              		.loc 1 87 0
 143 0088 019A     		ldr	r2, [sp, #4]
 144 008a 0B68     		ldr	r3, [r1]
 145 008c 9A42     		cmp	r2, r3
 146 008e 08BF     		it	eq
 147 0090 0320     		moveq	r0, #3
 148 0092 F7D1     		bne	.L18
 149              		.loc 1 105 0
 150 0094 03B0     		add	sp, sp, #12
 151              		.cfi_remember_state
 152              		.cfi_def_cfa_offset 4
 153              		@ sp needed
 154 0096 5DF804EB 		ldr	lr, [sp], #4
 155              		.cfi_restore 14
 156              		.cfi_def_cfa_offset 0
 157              		.loc 1 95 0
 158 009a FFF7FEBF 		b	state_compare
 159              	.LVL13:
 160              	.L25:
 161              		.cfi_restore_state
 162 009e 9A42     		cmp	r2, r3
 163 00a0 08BF     		it	eq
 164 00a2 0420     		moveq	r0, #4
 165 00a4 EED1     		bne	.L18
 166              		.loc 1 105 0
 167 00a6 03B0     		add	sp, sp, #12
 168              		.cfi_def_cfa_offset 4
 169              		@ sp needed
 170 00a8 5DF804EB 		ldr	lr, [sp], #4
 171              		.cfi_restore 14
ARM GAS  /var/folders/sw/9r4bn5156wxfd2589391fjvr0000gn/T//cceiUNQt.s 			page 4


 172              		.cfi_def_cfa_offset 0
 173              		.loc 1 95 0
 174 00ac FFF7FEBF 		b	state_compare
 175              	.LVL14:
 176              	.L27:
 177              		.align	2
 178              	.L26:
 179 00b0 00000000 		.word	__stack_chk_guard
 180 00b4 00401C46 		.word	1176256512
 181              		.cfi_endproc
 182              	.LFE293:
 183              		.size	sound_remote, .-sound_remote
 184              		.section	.text.processAudioData,"ax",%progbits
 185              		.align	1
 186              		.p2align 4,,15
 187              		.global	processAudioData
 188              		.syntax unified
 189              		.thumb
 190              		.thumb_func
 191              		.fpu fpv4-sp-d16
 192              		.type	processAudioData, %function
 193              	processAudioData:
 194              	.LFB294:
 195              		.loc 1 116 0
 196              		.cfi_startproc
 197              		@ args = 0, pretend = 0, frame = 8
 198              		@ frame_needed = 0, uses_anonymous_args = 0
 199              	.LVL15:
 200 0000 F0B5     		push	{r4, r5, r6, r7, lr}
 201              		.cfi_def_cfa_offset 20
 202              		.cfi_offset 4, -20
 203              		.cfi_offset 5, -16
 204              		.cfi_offset 6, -12
 205              		.cfi_offset 7, -8
 206              		.cfi_offset 14, -4
 207 0002 4E4E     		ldr	r6, .L51
 208 0004 4E4D     		ldr	r5, .L51+4
 209 0006 3368     		ldr	r3, [r6]
 210 0008 83B0     		sub	sp, sp, #12
 211              		.cfi_def_cfa_offset 32
 212              		.loc 1 116 0
 213 000a 0193     		str	r3, [sp, #4]
 214              	.LVL16:
 215 000c 2B88     		ldrh	r3, [r5]
 216              	.LBB46:
 217              		.loc 1 130 0
 218 000e 0029     		cmp	r1, #0
 219 0010 00F08980 		beq	.L29
 220              		.loc 1 133 0
 221 0014 B0F90220 		ldrsh	r2, [r0, #2]
 222 0018 4A4C     		ldr	r4, .L51+8
 223 001a 07EE902A 		vmov	s15, r2	@ int
 224              		.loc 1 137 0
 225 001e 5A1C     		adds	r2, r3, #1
 226              		.loc 1 133 0
 227 0020 04EB8307 		add	r7, r4, r3, lsl #2
 228              		.loc 1 140 0
ARM GAS  /var/folders/sw/9r4bn5156wxfd2589391fjvr0000gn/T//cceiUNQt.s 			page 5


 229 0024 92B2     		uxth	r2, r2
 230              		.loc 1 144 0
 231 0026 0233     		adds	r3, r3, #2
 232 0028 9BB2     		uxth	r3, r3
 233              		.loc 1 133 0
 234 002a F8EEE77A 		vcvt.f32.s32	s15, s15
 235              		.loc 1 140 0
 236 002e 04EB8202 		add	r2, r4, r2, lsl #2
 237 0032 4FF0000E 		mov	lr, #0
 238              		.loc 1 147 0
 239 0036 B3F5006F 		cmp	r3, #2048
 240              		.loc 1 133 0
 241 003a C7ED007A 		vstr.32	s15, [r7]
 242              		.loc 1 144 0
 243 003e 2B80     		strh	r3, [r5]	@ movhi
 244              		.loc 1 140 0
 245 0040 C2F800E0 		str	lr, [r2]	@ float
 246              		.loc 1 147 0
 247 0044 2CD2     		bcs	.L30
 248 0046 0139     		subs	r1, r1, #1
 249              	.LVL17:
 250 0048 C1F38D01 		ubfx	r1, r1, #2, #14
 251 004c 00EBC101 		add	r1, r0, r1, lsl #3
 252 0050 0027     		movs	r7, #0
 253 0052 1AE0     		b	.L31
 254              	.LVL18:
 255              	.L33:
 256              		.loc 1 133 0
 257 0054 B0F90A20 		ldrsh	r2, [r0, #10]
 258 0058 07EE902A 		vmov	s15, r2	@ int
 259              		.loc 1 140 0
 260 005c 5A1C     		adds	r2, r3, #1
 261 005e 92B2     		uxth	r2, r2
 262              		.loc 1 144 0
 263 0060 03F1020C 		add	ip, r3, #2
 264              		.loc 1 133 0
 265 0064 04EB8307 		add	r7, r4, r3, lsl #2
 266 0068 F8EEE77A 		vcvt.f32.s32	s15, s15
 267              		.loc 1 140 0
 268 006c 04EB8202 		add	r2, r4, r2, lsl #2
 269              		.loc 1 144 0
 270 0070 1FFA8CF3 		uxth	r3, ip
 271              		.loc 1 147 0
 272 0074 B3F5006F 		cmp	r3, #2048
 273              		.loc 1 133 0
 274 0078 C7ED007A 		vstr.32	s15, [r7]
 275 007c 00F10800 		add	r0, r0, #8
 276 0080 4FF00107 		mov	r7, #1
 277              		.loc 1 140 0
 278 0084 C2F800E0 		str	lr, [r2]	@ float
 279              		.loc 1 147 0
 280 0088 09D2     		bcs	.L32
 281              	.L31:
 282              		.loc 1 130 0 discriminator 2
 283 008a 8842     		cmp	r0, r1
 284 008c E2D1     		bne	.L33
 285 008e 002F     		cmp	r7, #0
ARM GAS  /var/folders/sw/9r4bn5156wxfd2589391fjvr0000gn/T//cceiUNQt.s 			page 6


 286 0090 50D1     		bne	.L48
 287              	.L28:
 288              	.LBE46:
 289              		.loc 1 188 0
 290 0092 019A     		ldr	r2, [sp, #4]
 291 0094 3368     		ldr	r3, [r6]
 292 0096 9A42     		cmp	r2, r3
 293 0098 4ED1     		bne	.L47
 294 009a 03B0     		add	sp, sp, #12
 295              		.cfi_remember_state
 296              		.cfi_def_cfa_offset 20
 297              		@ sp needed
 298 009c F0BD     		pop	{r4, r5, r6, r7, pc}
 299              	.L32:
 300              		.cfi_restore_state
 301 009e 2B80     		strh	r3, [r5]	@ movhi
 302              	.L30:
 303              		.loc 1 160 0
 304 00a0 2849     		ldr	r1, .L51+8
 305              		.loc 1 178 0
 306 00a2 294C     		ldr	r4, .L51+12
 307              		.loc 1 160 0
 308 00a4 4FF48060 		mov	r0, #1024
 309 00a8 FFF7FEFF 		bl	doFFT_optimized
 310              	.LVL19:
 311              		.loc 1 172 0
 312 00ac 4FF48062 		mov	r2, #1024
 313 00b0 2649     		ldr	r1, .L51+16
 314 00b2 2448     		ldr	r0, .L51+8
 315 00b4 FFF7FEFF 		bl	arm_cmplx_mag_f32
 316              	.LVL20:
 317              		.loc 1 178 0
 318 00b8 2378     		ldrb	r3, [r4]	@ zero_extendqisi2
 319 00ba 082B     		cmp	r3, #8
 320 00bc 0FD8     		bhi	.L49
 321 00be 0133     		adds	r3, r3, #1
 322 00c0 DBB2     		uxtb	r3, r3
 323              	.L35:
 324              		.loc 1 186 0
 325 00c2 0199     		ldr	r1, [sp, #4]
 326 00c4 3268     		ldr	r2, [r6]
 327              		.loc 1 184 0
 328 00c6 2370     		strb	r3, [r4]
 329              		.loc 1 186 0
 330 00c8 9142     		cmp	r1, r2
 331              		.loc 1 183 0
 332 00ca 4FF00003 		mov	r3, #0
 333 00ce 2B80     		strh	r3, [r5]	@ movhi
 334              		.loc 1 186 0
 335 00d0 32D1     		bne	.L47
 336 00d2 1E48     		ldr	r0, .L51+16
 337              		.loc 1 188 0
 338 00d4 03B0     		add	sp, sp, #12
 339              		.cfi_remember_state
 340              		.cfi_def_cfa_offset 20
 341              		@ sp needed
 342 00d6 BDE8F040 		pop	{r4, r5, r6, r7, lr}
ARM GAS  /var/folders/sw/9r4bn5156wxfd2589391fjvr0000gn/T//cceiUNQt.s 			page 7


 343              		.cfi_restore 14
 344              		.cfi_restore 7
 345              		.cfi_restore 6
 346              		.cfi_restore 5
 347              		.cfi_restore 4
 348              		.cfi_def_cfa_offset 0
 349              		.loc 1 186 0
 350 00da FFF7FEBF 		b	sound_remote
 351              	.LVL21:
 352              	.L49:
 353              		.cfi_restore_state
 354              	.LBB47:
 355              	.LBB48:
 356              	.LBB49:
 357              	.LBB50:
 358              	.LBB51:
 359              	.LBB52:
 360              	.LBB53:
 361              		.file 2 "../../lib/e-puck2_main-processor/ChibiOS//os/ext/CMSIS/include/core_cmFunc.h"
 362              		.loc 2 546 0
 363 00de 2023     		movs	r3, #32
 364              		.syntax unified
 365              	@ 546 "../../lib/e-puck2_main-processor/ChibiOS//os/ext/CMSIS/include/core_cmFunc.h" 1
 366 00e0 83F31188 		MSR basepri, r3
 367              	@ 0 "" 2
 368              	.LVL22:
 369              		.thumb
 370              		.syntax unified
 371              	.LBE53:
 372              	.LBE52:
 373              	.LBE51:
 374              		.file 3 "../../lib/e-puck2_main-processor/ChibiOS//os/rt/include/chsys.h"
 375              		.loc 3 349 0
 376 00e4 FFF7FEFF 		bl	_stats_start_measure_crit_thd
 377              	.LVL23:
 378              		.loc 3 350 0
 379 00e8 FFF7FEFF 		bl	_dbg_check_lock
 380              	.LVL24:
 381              	.LBE50:
 382              	.LBE49:
 383              	.LBB54:
 384              	.LBB55:
 385              		.file 4 "../../lib/e-puck2_main-processor/ChibiOS//os/rt/include/chbsem.h"
 386              		.loc 4 268 0
 387 00ec FFF7FEFF 		bl	chDbgCheckClassI
 388              	.LVL25:
 389              		.loc 4 270 0
 390 00f0 1748     		ldr	r0, .L51+20
 391 00f2 8368     		ldr	r3, [r0, #8]
 392 00f4 002B     		cmp	r3, #0
 393 00f6 1ADD     		ble	.L50
 394              	.L36:
 395              	.LVL26:
 396              	.LBE55:
 397              	.LBE54:
 398              		.loc 4 286 0
 399 00f8 FFF7FEFF 		bl	chSchRescheduleS
ARM GAS  /var/folders/sw/9r4bn5156wxfd2589391fjvr0000gn/T//cceiUNQt.s 			page 8


 400              	.LVL27:
 401              	.LBB57:
 402              	.LBB58:
 403              		.loc 3 360 0
 404 00fc FFF7FEFF 		bl	_dbg_check_unlock
 405              	.LVL28:
 406              		.loc 3 361 0
 407 0100 FFF7FEFF 		bl	_stats_stop_measure_crit_thd
 408              	.LVL29:
 409              		.loc 3 367 0
 410 0104 134B     		ldr	r3, .L51+24
 411 0106 1A68     		ldr	r2, [r3]
 412 0108 9A42     		cmp	r2, r3
 413 010a 07D0     		beq	.L37
 414 010c 9969     		ldr	r1, [r3, #24]
 415 010e 9368     		ldr	r3, [r2, #8]
 416 0110 8A68     		ldr	r2, [r1, #8]
 417 0112 9A42     		cmp	r2, r3
 418 0114 02D2     		bcs	.L37
 419 0116 1048     		ldr	r0, .L51+28
 420 0118 FFF7FEFF 		bl	chSysHalt
 421              	.LVL30:
 422              	.L37:
 423              	.LBB59:
 424              	.LBB60:
 425              	.LBB61:
 426              		.loc 2 546 0
 427 011c 0023     		movs	r3, #0
 428              		.syntax unified
 429              	@ 546 "../../lib/e-puck2_main-processor/ChibiOS//os/ext/CMSIS/include/core_cmFunc.h" 1
 430 011e 83F31188 		MSR basepri, r3
 431              	@ 0 "" 2
 432              	.LVL31:
 433              		.thumb
 434              		.syntax unified
 435 0122 0123     		movs	r3, #1
 436 0124 CDE7     		b	.L35
 437              	.LVL32:
 438              	.L29:
 439              	.LBE61:
 440              	.LBE60:
 441              	.LBE59:
 442              	.LBE58:
 443              	.LBE57:
 444              	.LBE48:
 445              	.LBE47:
 446              		.loc 1 152 0
 447 0126 B3F5006F 		cmp	r3, #2048
 448 012a B2D3     		bcc	.L28
 449 012c B8E7     		b	.L30
 450              	.LVL33:
 451              	.L50:
 452              	.LBB64:
 453              	.LBB63:
 454              	.LBB62:
 455              	.LBB56:
 456              		.loc 4 271 0
ARM GAS  /var/folders/sw/9r4bn5156wxfd2589391fjvr0000gn/T//cceiUNQt.s 			page 9


 457 012e FFF7FEFF 		bl	chSemSignalI
 458              	.LVL34:
 459 0132 E1E7     		b	.L36
 460              	.LVL35:
 461              	.L48:
 462 0134 2B80     		strh	r3, [r5]	@ movhi
 463 0136 ACE7     		b	.L28
 464              	.L47:
 465              	.LBE56:
 466              	.LBE62:
 467              	.LBE63:
 468              	.LBE64:
 469              		.loc 1 188 0
 470 0138 FFF7FEFF 		bl	__stack_chk_fail
 471              	.LVL36:
 472              	.L52:
 473              		.align	2
 474              	.L51:
 475 013c 00000000 		.word	__stack_chk_guard
 476 0140 00000000 		.word	.LANCHOR0
 477 0144 00000000 		.word	micLeft_cmplx_input
 478 0148 00000000 		.word	.LANCHOR3
 479 014c 00000000 		.word	micLeft_output
 480 0150 00000000 		.word	.LANCHOR1
 481 0154 00000000 		.word	ch
 482 0158 00000000 		.word	.LANCHOR2
 483              		.cfi_endproc
 484              	.LFE294:
 485              		.size	processAudioData, .-processAudioData
 486              		.section	.text.wait_send_to_computer,"ax",%progbits
 487              		.align	1
 488              		.p2align 4,,15
 489              		.global	wait_send_to_computer
 490              		.syntax unified
 491              		.thumb
 492              		.thumb_func
 493              		.fpu fpv4-sp-d16
 494              		.type	wait_send_to_computer, %function
 495              	wait_send_to_computer:
 496              	.LFB295:
 497              		.loc 1 190 0
 498              		.cfi_startproc
 499              		@ args = 0, pretend = 0, frame = 8
 500              		@ frame_needed = 0, uses_anonymous_args = 0
 501 0000 00B5     		push	{lr}
 502              		.cfi_def_cfa_offset 4
 503              		.cfi_offset 14, -4
 504 0002 084B     		ldr	r3, .L58
 505 0004 83B0     		sub	sp, sp, #12
 506              		.cfi_def_cfa_offset 16
 507              		.loc 1 190 0
 508 0006 1A68     		ldr	r2, [r3]
 509 0008 0192     		str	r2, [sp, #4]
 510              	.LVL37:
 511              	.LBB65:
 512              	.LBB66:
 513              		.loc 4 143 0
ARM GAS  /var/folders/sw/9r4bn5156wxfd2589391fjvr0000gn/T//cceiUNQt.s 			page 10


 514 000a 019A     		ldr	r2, [sp, #4]
 515 000c 1B68     		ldr	r3, [r3]
 516 000e 9A42     		cmp	r2, r3
 517 0010 05D1     		bne	.L57
 518 0012 0548     		ldr	r0, .L58+4
 519              	.LBE66:
 520              	.LBE65:
 521              		.loc 1 192 0
 522 0014 03B0     		add	sp, sp, #12
 523              		.cfi_remember_state
 524              		.cfi_def_cfa_offset 4
 525              		@ sp needed
 526 0016 5DF804EB 		ldr	lr, [sp], #4
 527              		.cfi_restore 14
 528              		.cfi_def_cfa_offset 0
 529              	.LBB68:
 530              	.LBB67:
 531              		.loc 4 143 0
 532 001a FFF7FEBF 		b	chSemWait
 533              	.LVL38:
 534              	.L57:
 535              		.cfi_restore_state
 536 001e FFF7FEFF 		bl	__stack_chk_fail
 537              	.LVL39:
 538              	.L59:
 539 0022 00BF     		.align	2
 540              	.L58:
 541 0024 00000000 		.word	__stack_chk_guard
 542 0028 00000000 		.word	.LANCHOR1
 543              	.LBE67:
 544              	.LBE68:
 545              		.cfi_endproc
 546              	.LFE295:
 547              		.size	wait_send_to_computer, .-wait_send_to_computer
 548              		.section	.text.get_audio_buffer_ptr,"ax",%progbits
 549              		.align	1
 550              		.p2align 4,,15
 551              		.global	get_audio_buffer_ptr
 552              		.syntax unified
 553              		.thumb
 554              		.thumb_func
 555              		.fpu fpv4-sp-d16
 556              		.type	get_audio_buffer_ptr, %function
 557              	get_audio_buffer_ptr:
 558              	.LFB296:
 559              		.loc 1 194 0
 560              		.cfi_startproc
 561              		@ args = 0, pretend = 0, frame = 8
 562              		@ frame_needed = 0, uses_anonymous_args = 0
 563              	.LVL40:
 564 0000 00B5     		push	{lr}
 565              		.cfi_def_cfa_offset 4
 566              		.cfi_offset 14, -4
 567 0002 164B     		ldr	r3, .L73
 568 0004 83B0     		sub	sp, sp, #12
 569              		.cfi_def_cfa_offset 16
 570              		.loc 1 194 0
ARM GAS  /var/folders/sw/9r4bn5156wxfd2589391fjvr0000gn/T//cceiUNQt.s 			page 11


 571 0006 1A68     		ldr	r2, [r3]
 572 0008 0192     		str	r2, [sp, #4]
 573              		.loc 1 195 0
 574 000a 88B1     		cbz	r0, .L63
 575              		.loc 1 198 0
 576 000c 0128     		cmp	r0, #1
 577 000e 17D0     		beq	.L64
 578              		.loc 1 201 0
 579 0010 0228     		cmp	r0, #2
 580 0012 19D0     		beq	.L65
 581              		.loc 1 204 0
 582 0014 0328     		cmp	r0, #3
 583 0016 15D0     		beq	.L66
 584              		.loc 1 207 0
 585 0018 0428     		cmp	r0, #4
 586 001a 17D0     		beq	.L67
 587              		.loc 1 210 0
 588 001c 0528     		cmp	r0, #5
 589 001e 17D0     		beq	.L68
 590              		.loc 1 213 0
 591 0020 0628     		cmp	r0, #6
 592 0022 17D0     		beq	.L69
 593              		.loc 1 220 0
 594 0024 0E4A     		ldr	r2, .L73+4
 595              		.loc 1 216 0
 596 0026 0728     		cmp	r0, #7
 597              		.loc 1 220 0
 598 0028 0CBF     		ite	eq
 599 002a 1046     		moveq	r0, r2
 600              	.LVL41:
 601 002c 0020     		movne	r0, #0
 602 002e 00E0     		b	.L60
 603              	.LVL42:
 604              	.L63:
 605              		.loc 1 196 0
 606 0030 0C48     		ldr	r0, .L73+8
 607              	.LVL43:
 608              	.L60:
 609              		.loc 1 222 0
 610 0032 019A     		ldr	r2, [sp, #4]
 611 0034 1B68     		ldr	r3, [r3]
 612 0036 9A42     		cmp	r2, r3
 613 0038 0ED1     		bne	.L72
 614 003a 03B0     		add	sp, sp, #12
 615              		.cfi_remember_state
 616              		.cfi_def_cfa_offset 4
 617              		@ sp needed
 618 003c 5DF804FB 		ldr	pc, [sp], #4
 619              	.LVL44:
 620              	.L64:
 621              		.cfi_restore_state
 622              		.loc 1 199 0
 623 0040 0948     		ldr	r0, .L73+12
 624              	.LVL45:
 625 0042 F6E7     		b	.L60
 626              	.LVL46:
 627              	.L66:
ARM GAS  /var/folders/sw/9r4bn5156wxfd2589391fjvr0000gn/T//cceiUNQt.s 			page 12


 628              		.loc 1 205 0
 629 0044 0948     		ldr	r0, .L73+16
 630              	.LVL47:
 631 0046 F4E7     		b	.L60
 632              	.LVL48:
 633              	.L65:
 634              		.loc 1 202 0
 635 0048 0948     		ldr	r0, .L73+20
 636              	.LVL49:
 637 004a F2E7     		b	.L60
 638              	.LVL50:
 639              	.L67:
 640              		.loc 1 208 0
 641 004c 0948     		ldr	r0, .L73+24
 642              	.LVL51:
 643 004e F0E7     		b	.L60
 644              	.LVL52:
 645              	.L68:
 646              		.loc 1 211 0
 647 0050 0948     		ldr	r0, .L73+28
 648              	.LVL53:
 649 0052 EEE7     		b	.L60
 650              	.LVL54:
 651              	.L69:
 652              		.loc 1 214 0
 653 0054 0948     		ldr	r0, .L73+32
 654              	.LVL55:
 655 0056 ECE7     		b	.L60
 656              	.L72:
 657              		.loc 1 222 0
 658 0058 FFF7FEFF 		bl	__stack_chk_fail
 659              	.LVL56:
 660              	.L74:
 661              		.align	2
 662              	.L73:
 663 005c 00000000 		.word	__stack_chk_guard
 664 0060 00000000 		.word	micBack_output
 665 0064 00000000 		.word	micLeft_cmplx_input
 666 0068 00000000 		.word	micRight_cmplx_input
 667 006c 00000000 		.word	micBack_cmplx_input
 668 0070 00000000 		.word	micFront_cmplx_input
 669 0074 00000000 		.word	micLeft_output
 670 0078 00000000 		.word	micRight_output
 671 007c 00000000 		.word	micFront_output
 672              		.cfi_endproc
 673              	.LFE296:
 674              		.size	get_audio_buffer_ptr, .-get_audio_buffer_ptr
 675              		.section	.bss.micBack_cmplx_input,"aw",%nobits
 676              		.align	2
 677              		.type	micBack_cmplx_input, %object
 678              		.size	micBack_cmplx_input, 8192
 679              	micBack_cmplx_input:
 680 0000 00000000 		.space	8192
 680      00000000 
 680      00000000 
 680      00000000 
 680      00000000 
ARM GAS  /var/folders/sw/9r4bn5156wxfd2589391fjvr0000gn/T//cceiUNQt.s 			page 13


 681              		.section	.bss.micBack_output,"aw",%nobits
 682              		.align	2
 683              		.type	micBack_output, %object
 684              		.size	micBack_output, 4096
 685              	micBack_output:
 686 0000 00000000 		.space	4096
 686      00000000 
 686      00000000 
 686      00000000 
 686      00000000 
 687              		.section	.bss.micFront_cmplx_input,"aw",%nobits
 688              		.align	2
 689              		.type	micFront_cmplx_input, %object
 690              		.size	micFront_cmplx_input, 8192
 691              	micFront_cmplx_input:
 692 0000 00000000 		.space	8192
 692      00000000 
 692      00000000 
 692      00000000 
 692      00000000 
 693              		.section	.bss.micFront_output,"aw",%nobits
 694              		.align	2
 695              		.type	micFront_output, %object
 696              		.size	micFront_output, 4096
 697              	micFront_output:
 698 0000 00000000 		.space	4096
 698      00000000 
 698      00000000 
 698      00000000 
 698      00000000 
 699              		.section	.bss.micLeft_cmplx_input,"aw",%nobits
 700              		.align	2
 701              		.type	micLeft_cmplx_input, %object
 702              		.size	micLeft_cmplx_input, 8192
 703              	micLeft_cmplx_input:
 704 0000 00000000 		.space	8192
 704      00000000 
 704      00000000 
 704      00000000 
 704      00000000 
 705              		.section	.bss.micLeft_output,"aw",%nobits
 706              		.align	2
 707              		.type	micLeft_output, %object
 708              		.size	micLeft_output, 4096
 709              	micLeft_output:
 710 0000 00000000 		.space	4096
 710      00000000 
 710      00000000 
 710      00000000 
 710      00000000 
 711              		.section	.bss.micRight_cmplx_input,"aw",%nobits
 712              		.align	2
 713              		.type	micRight_cmplx_input, %object
 714              		.size	micRight_cmplx_input, 8192
 715              	micRight_cmplx_input:
 716 0000 00000000 		.space	8192
 716      00000000 
ARM GAS  /var/folders/sw/9r4bn5156wxfd2589391fjvr0000gn/T//cceiUNQt.s 			page 14


 716      00000000 
 716      00000000 
 716      00000000 
 717              		.section	.bss.micRight_output,"aw",%nobits
 718              		.align	2
 719              		.type	micRight_output, %object
 720              		.size	micRight_output, 4096
 721              	micRight_output:
 722 0000 00000000 		.space	4096
 722      00000000 
 722      00000000 
 722      00000000 
 722      00000000 
 723              		.section	.bss.mustSend.14938,"aw",%nobits
 724              		.set	.LANCHOR3,. + 0
 725              		.type	mustSend.14938, %object
 726              		.size	mustSend.14938, 1
 727              	mustSend.14938:
 728 0000 00       		.space	1
 729              		.section	.bss.nb_samples.14937,"aw",%nobits
 730              		.align	1
 731              		.set	.LANCHOR0,. + 0
 732              		.type	nb_samples.14937, %object
 733              		.size	nb_samples.14937, 2
 734              	nb_samples.14937:
 735 0000 0000     		.space	2
 736              		.section	.data.sendToComputer_sem,"aw",%progbits
 737              		.align	2
 738              		.set	.LANCHOR1,. + 0
 739              		.type	sendToComputer_sem, %object
 740              		.size	sendToComputer_sem, 12
 741              	sendToComputer_sem:
 742 0000 00000000 		.word	sendToComputer_sem
 743 0004 00000000 		.word	sendToComputer_sem
 744 0008 00000000 		.word	0
 745              		.section	.rodata.__func__.7153,"a",%progbits
 746              		.align	2
 747              		.set	.LANCHOR2,. + 0
 748              		.type	__func__.7153, %object
 749              		.size	__func__.7153, 12
 750              	__func__.7153:
 751 0000 63685379 		.ascii	"chSysUnlock\000"
 751      73556E6C 
 751      6F636B00 
 752              		.text
 753              	.Letext0:
 754              		.file 5 "/Applications/Eclipse_e-puck2.app/Contents/Eclipse_e-puck2/Tools/gcc-arm-none-eabi-7-2017
 755              		.file 6 "/Applications/Eclipse_e-puck2.app/Contents/Eclipse_e-puck2/Tools/gcc-arm-none-eabi-7-2017
 756              		.file 7 "/Applications/Eclipse_e-puck2.app/Contents/Eclipse_e-puck2/Tools/gcc-arm-none-eabi-7-2017
 757              		.file 8 "../../lib/e-puck2_main-processor/ChibiOS//os/rt/ports/ARMCMx/compilers/GCC/chtypes.h"
 758              		.file 9 "../../lib/e-puck2_main-processor/ChibiOS//os/rt/include/chsystypes.h"
 759              		.file 10 "../../lib/e-puck2_main-processor/ChibiOS//os/rt/include/chschd.h"
 760              		.file 11 "../../lib/e-puck2_main-processor/ChibiOS//os/ext/CMSIS/include/core_cm4.h"
 761              		.file 12 "../../lib/e-puck2_main-processor/ChibiOS//os/ext/CMSIS/ST/system_stm32f4xx.h"
 762              		.file 13 "../../lib/e-puck2_main-processor/ChibiOS//os/ext/CMSIS/ST/stm32f407xx.h"
 763              		.file 14 "../../lib/e-puck2_main-processor/ChibiOS//os/rt/ports/ARMCMx/chcore.h"
 764              		.file 15 "../../lib/e-puck2_main-processor/ChibiOS//os/rt/ports/ARMCMx/chcore_v7m.h"
ARM GAS  /var/folders/sw/9r4bn5156wxfd2589391fjvr0000gn/T//cceiUNQt.s 			page 15


 765              		.file 16 "../../lib/e-puck2_main-processor/ChibiOS//os/rt/include/chdebug.h"
 766              		.file 17 "../../lib/e-puck2_main-processor/ChibiOS//os/rt/include/chtm.h"
 767              		.file 18 "../../lib/e-puck2_main-processor/ChibiOS//os/rt/include/chstats.h"
 768              		.file 19 "../../lib/e-puck2_main-processor/ChibiOS//os/rt/include/chsem.h"
 769              		.file 20 "../../lib/e-puck2_main-processor/ChibiOS//os/rt/include/chmtx.h"
 770              		.file 21 "../../lib/e-puck2_main-processor/ChibiOS//os/rt/include/chregistry.h"
 771              		.file 22 "../../lib/e-puck2_main-processor/ChibiOS//os/rt/include/chevents.h"
 772              		.file 23 "../../lib/e-puck2_main-processor/ChibiOS//os/rt/include/chqueues.h"
 773              		.file 24 "../../lib/e-puck2_main-processor/ChibiOS//os/hal/ports/STM32/STM32F4xx/stm32_dma.h"
 774              		.file 25 "../../lib/e-puck2_main-processor/ChibiOS//os/hal/include/hal_ioblock.h"
 775              		.file 26 "../../lib/e-puck2_main-processor/ChibiOS//os/hal/ports/STM32/LLD/GPIOv2/pal_lld.h"
 776              		.file 27 "../../lib/e-puck2_main-processor/ChibiOS//os/hal/include/adc.h"
 777              		.file 28 "../../lib/e-puck2_main-processor/ChibiOS//os/hal/ports/STM32/STM32F4xx/adc_lld.h"
 778              		.file 29 "../../lib/e-puck2_main-processor/ChibiOS//os/hal/include/can.h"
 779              		.file 30 "../../lib/e-puck2_main-processor/ChibiOS//os/hal/ports/STM32/LLD/can_lld.h"
 780              		.file 31 "../../lib/e-puck2_main-processor/ChibiOS//os/hal/include/dac.h"
 781              		.file 32 "../../lib/e-puck2_main-processor/ChibiOS//os/hal/ports/STM32/LLD/DACv1/dac_lld.h"
 782              		.file 33 "../../lib/e-puck2_main-processor/ChibiOS//os/hal/include/ext.h"
 783              		.file 34 "../../lib/e-puck2_main-processor/ChibiOS//os/hal/ports/STM32/LLD/ext_lld.h"
 784              		.file 35 "../../lib/e-puck2_main-processor/ChibiOS//os/hal/include/gpt.h"
 785              		.file 36 "../../lib/e-puck2_main-processor/ChibiOS//os/hal/ports/STM32/LLD/TIMv1/gpt_lld.h"
 786              		.file 37 "../../lib/e-puck2_main-processor/ChibiOS//os/hal/ports/STM32/LLD/TIMv1/stm32_tim.h"
 787              		.file 38 "../../lib/e-puck2_main-processor/ChibiOS//os/hal/include/i2c.h"
 788              		.file 39 "../../lib/e-puck2_main-processor/ChibiOS//os/hal/ports/STM32/LLD/I2Cv1/i2c_lld.h"
 789              		.file 40 "../../lib/e-puck2_main-processor/ChibiOS//os/hal/include/i2s.h"
 790              		.file 41 "../../lib/e-puck2_main-processor/ChibiOS//os/hal/ports/STM32/LLD/SPIv1/i2s_lld.h"
 791              		.file 42 "../../lib/e-puck2_main-processor/ChibiOS//os/hal/include/pwm.h"
 792              		.file 43 "../../lib/e-puck2_main-processor/ChibiOS//os/hal/ports/STM32/LLD/TIMv1/pwm_lld.h"
 793              		.file 44 "../../lib/e-puck2_main-processor/ChibiOS//os/hal/include/serial.h"
 794              		.file 45 "../../lib/e-puck2_main-processor/ChibiOS//os/hal/ports/STM32/LLD/USARTv1/serial_lld.h"
 795              		.file 46 "../../lib/e-puck2_main-processor/ChibiOS//os/hal/include/sdc.h"
 796              		.file 47 "../../lib/e-puck2_main-processor/ChibiOS//os/hal/ports/STM32/LLD/sdc_lld.h"
 797              		.file 48 "../../lib/e-puck2_main-processor/ChibiOS//os/hal/include/spi.h"
 798              		.file 49 "../../lib/e-puck2_main-processor/ChibiOS//os/hal/ports/STM32/LLD/SPIv1/spi_lld.h"
 799              		.file 50 "../../lib/e-puck2_main-processor/ChibiOS//os/hal/include/usb.h"
 800              		.file 51 "../../lib/e-puck2_main-processor/ChibiOS//os/hal/ports/STM32/LLD/OTGv1/usb_lld.h"
 801              		.file 52 "../../lib/e-puck2_main-processor/ChibiOS//os/hal/ports/STM32/LLD/OTGv1/stm32_otg.h"
 802              		.file 53 "../../lib/e-puck2_main-processor/ChibiOS//os/hal/include/serial_usb.h"
 803              		.file 54 "../../lib/e-puck2_main-processor/ChibiOS_ext/os/hal/include/../ports/STM32/STM32F4xx/dcm
 804              		.file 55 "/Applications/Eclipse_e-puck2.app/Contents/Eclipse_e-puck2/Tools/gcc-arm-none-eabi-7-201
 805              		.file 56 "/Applications/Eclipse_e-puck2.app/Contents/Eclipse_e-puck2/Tools/gcc-arm-none-eabi-7-201
 806              		.file 57 "/Applications/Eclipse_e-puck2.app/Contents/Eclipse_e-puck2/Tools/gcc-arm-none-eabi-7-201
 807              		.file 58 "../../lib/e-puck2_main-processor/src/msgbus/messagebus.h"
 808              		.file 59 "/Applications/Eclipse_e-puck2.app/Contents/Eclipse_e-puck2/Tools/gcc-arm-none-eabi-7-201
 809              		.file 60 "/Applications/Eclipse_e-puck2.app/Contents/Eclipse_e-puck2/Tools/gcc-arm-none-eabi-7-201
 810              		.file 61 "../../lib/e-puck2_main-processor/src/parameter/parameter.h"
 811              		.file 62 "./main.h"
 812              		.file 63 "../../lib/e-puck2_main-processor/src/usbcfg.h"
 813              		.file 64 "./audio_processing.h"
 814              		.file 65 "/Applications/Eclipse_e-puck2.app/Contents/Eclipse_e-puck2/Tools/gcc-arm-none-eabi-7-201
 815              		.file 66 "./fft.h"
 816              		.file 67 "../../lib/e-puck2_main-processor/ChibiOS//os/ext/CMSIS/include/arm_math.h"
 817              		.file 68 "./game_management.h"