ARM GAS  /var/folders/sw/9r4bn5156wxfd2589391fjvr0000gn/T//ccJ84G1b.s 			page 1


   1              		.cpu cortex-m4
   2              		.eabi_attribute 27, 1
   3              		.eabi_attribute 28, 1
   4              		.eabi_attribute 20, 1
   5              		.eabi_attribute 21, 1
   6              		.eabi_attribute 23, 3
   7              		.eabi_attribute 24, 1
   8              		.eabi_attribute 25, 1
   9              		.eabi_attribute 26, 1
  10              		.eabi_attribute 30, 2
  11              		.eabi_attribute 34, 1
  12              		.eabi_attribute 18, 4
  13              		.file	"game_management.c"
  14              		.text
  15              	.Ltext0:
  16              		.cfi_sections	.debug_frame
  17              		.section	.text.chprintf.constprop.1,"ax",%progbits
  18              		.align	1
  19              		.p2align 4,,15
  20              		.syntax unified
  21              		.thumb
  22              		.thumb_func
  23              		.fpu fpv4-sp-d16
  24              		.type	chprintf.constprop.1, %function
  25              	chprintf.constprop.1:
  26              	.LFB305:
  27              		.file 1 "../../lib/e-puck2_main-processor/ChibiOS//os/hal/lib/streams/chprintf.h"
  28              		.loc 1 69 0
  29              		.cfi_startproc
  30              		@ args = 4, pretend = 12, frame = 8
  31              		@ frame_needed = 0, uses_anonymous_args = 1
  32              	.LVL0:
  33 0000 0EB4     		push	{r1, r2, r3}
  34              		.cfi_def_cfa_offset 12
  35              		.cfi_offset 1, -12
  36              		.cfi_offset 2, -8
  37              		.cfi_offset 3, -4
  38 0002 10B5     		push	{r4, lr}
  39              		.cfi_def_cfa_offset 20
  40              		.cfi_offset 4, -20
  41              		.cfi_offset 14, -16
  42 0004 83B0     		sub	sp, sp, #12
  43              		.cfi_def_cfa_offset 32
  44              		.loc 1 69 0
  45 0006 05AA     		add	r2, sp, #20
  46 0008 094C     		ldr	r4, .L6
  47 000a 52F8041B 		ldr	r1, [r2], #4
  48 000e 2368     		ldr	r3, [r4]
  49              		.loc 1 74 0
  50 0010 0848     		ldr	r0, .L6+4
  51              	.LVL1:
  52              		.loc 1 73 0
  53 0012 0092     		str	r2, [sp]
  54              		.loc 1 69 0
  55 0014 0193     		str	r3, [sp, #4]
  56              	.LVL2:
  57              		.loc 1 74 0
ARM GAS  /var/folders/sw/9r4bn5156wxfd2589391fjvr0000gn/T//ccJ84G1b.s 			page 2


  58 0016 FFF7FEFF 		bl	chvprintf
  59              	.LVL3:
  60              		.loc 1 78 0
  61 001a 019A     		ldr	r2, [sp, #4]
  62 001c 2368     		ldr	r3, [r4]
  63 001e 9A42     		cmp	r2, r3
  64 0020 04D1     		bne	.L5
  65 0022 03B0     		add	sp, sp, #12
  66              		.cfi_remember_state
  67              		.cfi_def_cfa_offset 20
  68              		@ sp needed
  69 0024 BDE81040 		pop	{r4, lr}
  70              		.cfi_restore 14
  71              		.cfi_restore 4
  72              		.cfi_def_cfa_offset 12
  73 0028 03B0     		add	sp, sp, #12
  74              		.cfi_restore 3
  75              		.cfi_restore 2
  76              		.cfi_restore 1
  77              		.cfi_def_cfa_offset 0
  78 002a 7047     		bx	lr
  79              	.L5:
  80              		.cfi_restore_state
  81 002c FFF7FEFF 		bl	__stack_chk_fail
  82              	.LVL4:
  83              	.L7:
  84              		.align	2
  85              	.L6:
  86 0030 00000000 		.word	__stack_chk_guard
  87 0034 00000000 		.word	SD3
  88              		.cfi_endproc
  89              	.LFE305:
  90              		.size	chprintf.constprop.1, .-chprintf.constprop.1
  91              		.section	.text.mapping_start,"ax",%progbits
  92              		.align	1
  93              		.p2align 4,,15
  94              		.global	mapping_start
  95              		.syntax unified
  96              		.thumb
  97              		.thumb_func
  98              		.fpu fpv4-sp-d16
  99              		.type	mapping_start, %function
 100              	mapping_start:
 101              	.LFB294:
 102              		.file 2 "game_management.c"
 103              		.loc 2 78 0
 104              		.cfi_startproc
 105              		@ args = 0, pretend = 0, frame = 8
 106              		@ frame_needed = 0, uses_anonymous_args = 0
 107 0000 10B5     		push	{r4, lr}
 108              		.cfi_def_cfa_offset 8
 109              		.cfi_offset 4, -8
 110              		.cfi_offset 14, -4
 111 0002 0A4C     		ldr	r4, .L12
 112              		.loc 2 79 0
 113 0004 0A4B     		ldr	r3, .L12+4
 114              		.loc 2 78 0
ARM GAS  /var/folders/sw/9r4bn5156wxfd2589391fjvr0000gn/T//ccJ84G1b.s 			page 3


 115 0006 2268     		ldr	r2, [r4]
 116              		.loc 2 79 0
 117 0008 0A48     		ldr	r0, .L12+8
 118              		.loc 2 78 0
 119 000a 84B0     		sub	sp, sp, #16
 120              		.cfi_def_cfa_offset 24
 121              		.loc 2 79 0
 122 000c 4FF47A71 		mov	r1, #1000
 123              		.loc 2 78 0
 124 0010 0392     		str	r2, [sp, #12]
 125              		.loc 2 79 0
 126 0012 0022     		movs	r2, #0
 127 0014 0092     		str	r2, [sp]
 128 0016 4022     		movs	r2, #64
 129 0018 FFF7FEFF 		bl	chThdCreateStatic
 130              	.LVL5:
 131              		.loc 2 80 0
 132 001c 039A     		ldr	r2, [sp, #12]
 133 001e 2368     		ldr	r3, [r4]
 134 0020 9A42     		cmp	r2, r3
 135 0022 01D1     		bne	.L11
 136 0024 04B0     		add	sp, sp, #16
 137              		.cfi_remember_state
 138              		.cfi_def_cfa_offset 8
 139              		@ sp needed
 140 0026 10BD     		pop	{r4, pc}
 141              	.L11:
 142              		.cfi_restore_state
 143 0028 FFF7FEFF 		bl	__stack_chk_fail
 144              	.LVL6:
 145              	.L13:
 146              		.align	2
 147              	.L12:
 148 002c 00000000 		.word	__stack_chk_guard
 149 0030 00000000 		.word	ThdMapping
 150 0034 00000000 		.word	.LANCHOR0
 151              		.cfi_endproc
 152              	.LFE294:
 153              		.size	mapping_start, .-mapping_start
 154              		.section	.text.state_compare,"ax",%progbits
 155              		.align	1
 156              		.p2align 4,,15
 157              		.global	state_compare
 158              		.syntax unified
 159              		.thumb
 160              		.thumb_func
 161              		.fpu fpv4-sp-d16
 162              		.type	state_compare, %function
 163              	state_compare:
 164              	.LFB296:
 165              		.loc 2 230 0
 166              		.cfi_startproc
 167              		@ args = 0, pretend = 0, frame = 8
 168              		@ frame_needed = 0, uses_anonymous_args = 0
 169              	.LVL7:
 170 0000 00B5     		push	{lr}
 171              		.cfi_def_cfa_offset 4
ARM GAS  /var/folders/sw/9r4bn5156wxfd2589391fjvr0000gn/T//ccJ84G1b.s 			page 4


 172              		.cfi_offset 14, -4
 173              		.loc 2 231 0
 174 0002 204A     		ldr	r2, .L43
 175              		.loc 2 230 0
 176 0004 204B     		ldr	r3, .L43+4
 177              		.loc 2 231 0
 178 0006 1278     		ldrb	r2, [r2]	@ zero_extendqisi2
 179              		.loc 2 230 0
 180 0008 1968     		ldr	r1, [r3]
 181 000a 83B0     		sub	sp, sp, #12
 182              		.cfi_def_cfa_offset 16
 183              		.loc 2 230 0
 184 000c 0191     		str	r1, [sp, #4]
 185              		.loc 2 231 0
 186 000e 062A     		cmp	r2, #6
 187 0010 07D8     		bhi	.L14
 188 0012 DFE802F0 		tbb	[pc, r2]
 189              	.L17:
 190 0016 11       		.byte	(.L16-.L17)/2
 191 0017 06       		.byte	(.L14-.L17)/2
 192 0018 04       		.byte	(.L18-.L17)/2
 193 0019 04       		.byte	(.L18-.L17)/2
 194 001a 06       		.byte	(.L14-.L17)/2
 195 001b 04       		.byte	(.L18-.L17)/2
 196 001c 23       		.byte	(.L21-.L17)/2
 197 001d 00       		.p2align 1
 198              	.L18:
 199              		.loc 2 260 0
 200 001e 0628     		cmp	r0, #6
 201 0020 06D0     		beq	.L41
 202              	.L14:
 203              		.loc 2 305 0
 204 0022 019A     		ldr	r2, [sp, #4]
 205 0024 1B68     		ldr	r3, [r3]
 206 0026 9A42     		cmp	r2, r3
 207 0028 29D1     		bne	.L42
 208 002a 03B0     		add	sp, sp, #12
 209              		.cfi_remember_state
 210              		.cfi_def_cfa_offset 4
 211              		@ sp needed
 212 002c 5DF804FB 		ldr	pc, [sp], #4
 213              	.L41:
 214              		.cfi_restore_state
 215              		.loc 2 262 0
 216 0030 164A     		ldr	r2, .L43+8
 217 0032 0621     		movs	r1, #6
 218 0034 1170     		strb	r1, [r2]
 219              		.loc 2 263 0
 220 0036 F4E7     		b	.L14
 221              	.L16:
 222              		.loc 2 235 0
 223 0038 421E     		subs	r2, r0, #1
 224 003a 052A     		cmp	r2, #5
 225 003c 11D8     		bhi	.L22
 226 003e 01A1     		adr	r1, .L24
 227 0040 51F822F0 		ldr	pc, [r1, r2, lsl #2]
 228              		.p2align 2
ARM GAS  /var/folders/sw/9r4bn5156wxfd2589391fjvr0000gn/T//ccJ84G1b.s 			page 5


 229              	.L24:
 230 0044 67000000 		.word	.L23+1
 231 0048 63000000 		.word	.L22+1
 232 004c 77000000 		.word	.L25+1
 233 0050 6F000000 		.word	.L26+1
 234 0054 63000000 		.word	.L22+1
 235 0058 31000000 		.word	.L41+1
 236              		.p2align 1
 237              	.L21:
 238              		.loc 2 294 0
 239 005c 0B4A     		ldr	r2, .L43+8
 240 005e 1070     		strb	r0, [r2]
 241              		.loc 2 296 0
 242 0060 DFE7     		b	.L14
 243              	.L22:
 244              		.loc 2 302 0 discriminator 1
 245 0062 0128     		cmp	r0, #1
 246 0064 DDD1     		bne	.L14
 247              	.L23:
 248              		.loc 2 303 0
 249 0066 094A     		ldr	r2, .L43+8
 250 0068 0121     		movs	r1, #1
 251 006a 1170     		strb	r1, [r2]
 252              		.loc 2 305 0
 253 006c D9E7     		b	.L14
 254              	.L26:
 255              		.loc 2 245 0
 256 006e 074A     		ldr	r2, .L43+8
 257 0070 0421     		movs	r1, #4
 258 0072 1170     		strb	r1, [r2]
 259              		.loc 2 246 0
 260 0074 D5E7     		b	.L14
 261              	.L25:
 262              		.loc 2 242 0
 263 0076 054A     		ldr	r2, .L43+8
 264 0078 0321     		movs	r1, #3
 265 007a 1170     		strb	r1, [r2]
 266              		.loc 2 243 0
 267 007c D1E7     		b	.L14
 268              	.L42:
 269              		.loc 2 305 0
 270 007e FFF7FEFF 		bl	__stack_chk_fail
 271              	.LVL8:
 272              	.L44:
 273 0082 00BF     		.align	2
 274              	.L43:
 275 0084 00000000 		.word	.LANCHOR1
 276 0088 00000000 		.word	__stack_chk_guard
 277 008c 00000000 		.word	.LANCHOR2
 278              		.cfi_endproc
 279              	.LFE296:
 280              		.size	state_compare, .-state_compare
 281              		.global	__aeabi_f2d
 282              		.section	.text.update_map_position,"ax",%progbits
 283              		.align	1
 284              		.p2align 4,,15
 285              		.global	update_map_position
ARM GAS  /var/folders/sw/9r4bn5156wxfd2589391fjvr0000gn/T//ccJ84G1b.s 			page 6


 286              		.syntax unified
 287              		.thumb
 288              		.thumb_func
 289              		.fpu fpv4-sp-d16
 290              		.type	update_map_position, %function
 291              	update_map_position:
 292              	.LFB297:
 293              		.loc 2 308 0
 294              		.cfi_startproc
 295              		@ args = 0, pretend = 0, frame = 8
 296              		@ frame_needed = 0, uses_anonymous_args = 0
 297 0000 F0B5     		push	{r4, r5, r6, r7, lr}
 298              		.cfi_def_cfa_offset 20
 299              		.cfi_offset 4, -20
 300              		.cfi_offset 5, -16
 301              		.cfi_offset 6, -12
 302              		.cfi_offset 7, -8
 303              		.cfi_offset 14, -4
 304 0002 2DED048B 		vpush.64	{d8, d9}
 305              		.cfi_def_cfa_offset 36
 306              		.cfi_offset 80, -36
 307              		.cfi_offset 81, -32
 308              		.cfi_offset 82, -28
 309              		.cfi_offset 83, -24
 310 0006 324D     		ldr	r5, .L49
 311              		.loc 2 332 0
 312 0008 324C     		ldr	r4, .L49+4
 313              		.loc 2 308 0
 314 000a 2B68     		ldr	r3, [r5]
 315 000c 89B0     		sub	sp, sp, #36
 316              		.cfi_def_cfa_offset 72
 317              		.loc 2 308 0
 318 000e 0793     		str	r3, [sp, #28]
 319              	.LVL9:
 320              		.loc 2 320 0
 321 0010 FFF7FEFF 		bl	left_motor_get_pos
 322              	.LVL10:
 323 0014 08EE100A 		vmov	s16, r0	@ int
 324              	.LVL11:
 325              		.loc 2 321 0
 326 0018 FFF7FEFF 		bl	right_motor_get_pos
 327              	.LVL12:
 328 001c 07EE900A 		vmov	s15, r0	@ int
 329              		.loc 2 320 0
 330 0020 B8EEC88A 		vcvt.f32.s32	s16, s16
 331              	.LVL13:
 332              		.loc 2 321 0
 333 0024 F8EEE77A 		vcvt.f32.s32	s15, s15
 334              	.LVL14:
 335              		.loc 2 324 0
 336 0028 2B4B     		ldr	r3, .L49+8
 337              		.loc 2 323 0
 338 002a 38EE278A 		vadd.f32	s16, s16, s15
 339              	.LVL15:
 340 002e F6EE007A 		vmov.f32	s15, #5.0e-1
 341              	.LVL16:
 342 0032 28EE278A 		vmul.f32	s16, s16, s15
ARM GAS  /var/folders/sw/9r4bn5156wxfd2589391fjvr0000gn/T//ccJ84G1b.s 			page 7


 343              	.LVL17:
 344              		.loc 2 324 0
 345 0036 D3ED007A 		vldr.32	s15, [r3]
 346              		.loc 2 326 0
 347 003a 83ED008A 		vstr.32	s16, [r3]
 348              		.loc 2 324 0
 349 003e 38EE678A 		vsub.f32	s16, s16, s15
 350              	.LVL18:
 351              		.loc 2 328 0
 352 0042 B0EE480A 		vmov.f32	s0, s16
 353 0046 FFF7FEFF 		bl	steps_to_cm
 354              	.LVL19:
 355 004a F0EE408A 		vmov.f32	s17, s0
 356              	.LVL20:
 357              		.loc 2 332 0
 358 004e 94ED020A 		vldr.32	s0, [r4, #8]
 359              	.LVL21:
 360 0052 FFF7FEFF 		bl	arm_cos_f32
 361              	.LVL22:
 362 0056 20EE289A 		vmul.f32	s18, s0, s17
 363              	.LVL23:
 364              		.loc 2 333 0
 365 005a 94ED020A 		vldr.32	s0, [r4, #8]
 366 005e FFF7FEFF 		bl	arm_sin_f32
 367              	.LVL24:
 368              		.loc 2 335 0
 369 0062 18EE900A 		vmov	r0, s17
 370              		.loc 2 333 0
 371 0066 60EE288A 		vmul.f32	s17, s0, s17
 372              	.LVL25:
 373              		.loc 2 335 0
 374 006a FFF7FEFF 		bl	__aeabi_f2d
 375              	.LVL26:
 376 006e 0646     		mov	r6, r0
 377 0070 18EE100A 		vmov	r0, s16
 378 0074 0F46     		mov	r7, r1
 379 0076 FFF7FEFF 		bl	__aeabi_f2d
 380              	.LVL27:
 381 007a CDE90401 		strd	r0, [sp, #16]
 382 007e 18EE900A 		vmov	r0, s17
 383 0082 FFF7FEFF 		bl	__aeabi_f2d
 384              	.LVL28:
 385 0086 CDE90201 		strd	r0, [sp, #8]
 386 008a 19EE100A 		vmov	r0, s18
 387 008e FFF7FEFF 		bl	__aeabi_f2d
 388              	.LVL29:
 389 0092 3246     		mov	r2, r6
 390 0094 CDE90001 		strd	r0, [sp]
 391 0098 3B46     		mov	r3, r7
 392 009a 1049     		ldr	r1, .L49+12
 393 009c 1048     		ldr	r0, .L49+16
 394 009e FFF7FEFF 		bl	chprintf.constprop.1
 395              	.LVL30:
 396              		.loc 2 338 0
 397 00a2 94ED000A 		vldr.32	s0, [r4]
 398              		.loc 2 339 0
 399 00a6 D4ED017A 		vldr.32	s15, [r4, #4]
ARM GAS  /var/folders/sw/9r4bn5156wxfd2589391fjvr0000gn/T//ccJ84G1b.s 			page 8


 400              		.loc 2 341 0
 401 00aa 079A     		ldr	r2, [sp, #28]
 402 00ac 2B68     		ldr	r3, [r5]
 403              		.loc 2 338 0
 404 00ae 30EE090A 		vadd.f32	s0, s0, s18
 405              		.loc 2 339 0
 406 00b2 77EEA88A 		vadd.f32	s17, s15, s17
 407              	.LVL31:
 408              		.loc 2 341 0
 409 00b6 9A42     		cmp	r2, r3
 410              		.loc 2 338 0
 411 00b8 84ED000A 		vstr.32	s0, [r4]
 412              		.loc 2 339 0
 413 00bc C4ED018A 		vstr.32	s17, [r4, #4]
 414              		.loc 2 341 0
 415 00c0 03D1     		bne	.L48
 416 00c2 09B0     		add	sp, sp, #36
 417              		.cfi_remember_state
 418              		.cfi_def_cfa_offset 36
 419              		@ sp needed
 420 00c4 BDEC048B 		vldm	sp!, {d8-d9}
 421              		.cfi_restore 82
 422              		.cfi_restore 83
 423              		.cfi_restore 80
 424              		.cfi_restore 81
 425              		.cfi_def_cfa_offset 20
 426              	.LVL32:
 427 00c8 F0BD     		pop	{r4, r5, r6, r7, pc}
 428              	.LVL33:
 429              	.L48:
 430              		.cfi_restore_state
 431 00ca FFF7FEFF 		bl	__stack_chk_fail
 432              	.LVL34:
 433              	.L50:
 434 00ce 00BF     		.align	2
 435              	.L49:
 436 00d0 00000000 		.word	__stack_chk_guard
 437 00d4 00000000 		.word	.LANCHOR4
 438 00d8 00000000 		.word	.LANCHOR3
 439 00dc 00000000 		.word	.LC0
 440 00e0 00000000 		.word	SD3
 441              		.cfi_endproc
 442              	.LFE297:
 443              		.size	update_map_position, .-update_map_position
 444              		.section	.text.ThdMapping,"ax",%progbits
 445              		.align	1
 446              		.p2align 4,,15
 447              		.syntax unified
 448              		.thumb
 449              		.thumb_func
 450              		.fpu fpv4-sp-d16
 451              		.type	ThdMapping, %function
 452              	ThdMapping:
 453              	.LFB293:
 454              		.loc 2 47 0
 455              		.cfi_startproc
 456              		@ Volatile: function does not return.
ARM GAS  /var/folders/sw/9r4bn5156wxfd2589391fjvr0000gn/T//ccJ84G1b.s 			page 9


 457              		@ args = 0, pretend = 0, frame = 8
 458              		@ frame_needed = 0, uses_anonymous_args = 0
 459              	.LVL35:
 460 0000 2DE98048 		push	{r7, fp, lr}
 461              		.cfi_def_cfa_offset 12
 462              		.cfi_offset 7, -12
 463              		.cfi_offset 11, -8
 464              		.cfi_offset 14, -4
 465              	.LBB60:
 466              	.LBB61:
 467              		.file 3 "../../lib/e-puck2_main-processor/ChibiOS//os/rt/include/chregistry.h"
 468              		.loc 3 135 0
 469 0004 264C     		ldr	r4, .L57
 470              	.LBE61:
 471              	.LBE60:
 472              		.loc 2 47 0
 473 0006 274B     		ldr	r3, .L57+4
 474              	.LBB64:
 475              	.LBB62:
 476              		.loc 3 135 0
 477 0008 A269     		ldr	r2, [r4, #24]
 478 000a 2749     		ldr	r1, .L57+8
 479              	.LBE62:
 480              	.LBE64:
 481              		.loc 2 47 0
 482 000c 1B68     		ldr	r3, [r3]
 483 000e DFF8A0A0 		ldr	r10, .L57+16
 484 0012 264D     		ldr	r5, .L57+12
 485              	.LBB65:
 486              	.LBB66:
 487              	.LBB67:
 488              	.LBB68:
 489              		.file 4 "../../lib/e-puck2_main-processor/ChibiOS//os/rt/include/chsys.h"
 490              		.loc 4 367 0
 491 0014 DFF89CB0 		ldr	fp, .L57+20
 492              	.LBE68:
 493              	.LBE67:
 494              	.LBE66:
 495              	.LBE65:
 496              	.LBB82:
 497              	.LBB63:
 498              		.loc 3 135 0
 499 0018 9161     		str	r1, [r2, #24]
 500              	.LBE63:
 501              	.LBE82:
 502              		.loc 2 47 0
 503 001a 87B0     		sub	sp, sp, #28
 504              		.cfi_def_cfa_offset 40
 505              		.loc 2 72 0
 506 001c DFF89890 		ldr	r9, .L57+24
 507 0020 DFF89880 		ldr	r8, .L57+28
 508              		.loc 2 47 0
 509 0024 0593     		str	r3, [sp, #20]
 510              	.LVL36:
 511 0026 19E0     		b	.L54
 512              	.LVL37:
 513              	.L53:
ARM GAS  /var/folders/sw/9r4bn5156wxfd2589391fjvr0000gn/T//ccJ84G1b.s 			page 10


 514              		.loc 2 72 0
 515 0028 2868     		ldr	r0, [r5]	@ float
 516 002a FFF7FEFF 		bl	__aeabi_f2d
 517              	.LVL38:
 518 002e 0646     		mov	r6, r0
 519 0030 A868     		ldr	r0, [r5, #8]	@ float
 520 0032 0F46     		mov	r7, r1
 521 0034 FFF7FEFF 		bl	__aeabi_f2d
 522              	.LVL39:
 523 0038 CDE90201 		strd	r0, [sp, #8]
 524 003c 6868     		ldr	r0, [r5, #4]	@ float
 525 003e FFF7FEFF 		bl	__aeabi_f2d
 526              	.LVL40:
 527 0042 3246     		mov	r2, r6
 528 0044 CDE90001 		strd	r0, [sp]
 529 0048 3B46     		mov	r3, r7
 530 004a 4946     		mov	r1, r9
 531 004c 4046     		mov	r0, r8
 532 004e FFF7FEFF 		bl	chprintf.constprop.1
 533              	.LVL41:
 534              		.loc 2 74 0
 535 0052 0498     		ldr	r0, [sp, #16]
 536 0054 0499     		ldr	r1, [sp, #16]
 537 0056 0A31     		adds	r1, r1, #10
 538 0058 FFF7FEFF 		bl	chThdSleepUntilWindowed
 539              	.LVL42:
 540              	.L54:
 541              	.LBB83:
 542              	.LBB81:
 543              	.LBB73:
 544              	.LBB74:
 545              	.LBB75:
 546              	.LBB76:
 547              	.LBB77:
 548              		.file 5 "../../lib/e-puck2_main-processor/ChibiOS//os/ext/CMSIS/include/core_cmFunc.h"
 549              		.loc 5 546 0
 550 005c 2023     		movs	r3, #32
 551              		.syntax unified
 552              	@ 546 "../../lib/e-puck2_main-processor/ChibiOS//os/ext/CMSIS/include/core_cmFunc.h" 1
 553 005e 83F31188 		MSR basepri, r3
 554              	@ 0 "" 2
 555              	.LVL43:
 556              		.thumb
 557              		.syntax unified
 558              	.LBE77:
 559              	.LBE76:
 560              	.LBE75:
 561              		.loc 4 349 0
 562 0062 FFF7FEFF 		bl	_stats_start_measure_crit_thd
 563              	.LVL44:
 564              		.loc 4 350 0
 565 0066 FFF7FEFF 		bl	_dbg_check_lock
 566              	.LVL45:
 567              	.LBE74:
 568              	.LBE73:
 569              	.LBB78:
 570              	.LBB79:
ARM GAS  /var/folders/sw/9r4bn5156wxfd2589391fjvr0000gn/T//ccJ84G1b.s 			page 11


 571              		.file 6 "../../lib/e-puck2_main-processor/ChibiOS//os/rt/include/chvt.h"
 572              		.loc 6 231 0
 573 006a A66A     		ldr	r6, [r4, #40]
 574              	.LBE79:
 575              	.LBE78:
 576              	.LBB80:
 577              	.LBB72:
 578              		.loc 4 360 0
 579 006c FFF7FEFF 		bl	_dbg_check_unlock
 580              	.LVL46:
 581              		.loc 4 361 0
 582 0070 FFF7FEFF 		bl	_stats_stop_measure_crit_thd
 583              	.LVL47:
 584              		.loc 4 367 0
 585 0074 2368     		ldr	r3, [r4]
 586 0076 A342     		cmp	r3, r4
 587 0078 07D0     		beq	.L52
 588 007a A269     		ldr	r2, [r4, #24]
 589 007c 9B68     		ldr	r3, [r3, #8]
 590 007e 9268     		ldr	r2, [r2, #8]
 591 0080 9A42     		cmp	r2, r3
 592 0082 02D2     		bcs	.L52
 593 0084 5846     		mov	r0, fp
 594 0086 FFF7FEFF 		bl	chSysHalt
 595              	.LVL48:
 596              	.L52:
 597              	.LBB69:
 598              	.LBB70:
 599              	.LBB71:
 600              		.loc 5 546 0
 601 008a 0023     		movs	r3, #0
 602              		.syntax unified
 603              	@ 546 "../../lib/e-puck2_main-processor/ChibiOS//os/ext/CMSIS/include/core_cmFunc.h" 1
 604 008c 83F31188 		MSR basepri, r3
 605              	@ 0 "" 2
 606              	.LVL49:
 607              		.thumb
 608              		.syntax unified
 609              	.LBE71:
 610              	.LBE70:
 611              	.LBE69:
 612              	.LBE72:
 613              	.LBE80:
 614              	.LBE81:
 615              	.LBE83:
 616              		.loc 2 63 0
 617 0090 9AF80030 		ldrb	r3, [r10]	@ zero_extendqisi2
 618              		.loc 2 61 0
 619 0094 0496     		str	r6, [sp, #16]
 620              		.loc 2 63 0
 621 0096 012B     		cmp	r3, #1
 622 0098 C6D1     		bne	.L53
 623              		.loc 2 66 0
 624 009a FFF7FEFF 		bl	update_map_position
 625              	.LVL50:
 626 009e C3E7     		b	.L53
 627              	.L58:
ARM GAS  /var/folders/sw/9r4bn5156wxfd2589391fjvr0000gn/T//ccJ84G1b.s 			page 12


 628              		.align	2
 629              	.L57:
 630 00a0 00000000 		.word	ch
 631 00a4 00000000 		.word	__stack_chk_guard
 632 00a8 00000000 		.word	.LANCHOR5
 633 00ac 00000000 		.word	.LANCHOR4
 634 00b0 00000000 		.word	.LANCHOR7
 635 00b4 00000000 		.word	.LANCHOR6
 636 00b8 00000000 		.word	.LC1
 637 00bc 00000000 		.word	SD3
 638              		.cfi_endproc
 639              	.LFE293:
 640              		.size	ThdMapping, .-ThdMapping
 641              		.section	.text.moteurs_tourne,"ax",%progbits
 642              		.align	1
 643              		.p2align 4,,15
 644              		.global	moteurs_tourne
 645              		.syntax unified
 646              		.thumb
 647              		.thumb_func
 648              		.fpu fpv4-sp-d16
 649              		.type	moteurs_tourne, %function
 650              	moteurs_tourne:
 651              	.LFB298:
 652              		.loc 2 345 0
 653              		.cfi_startproc
 654              		@ args = 0, pretend = 0, frame = 8
 655              		@ frame_needed = 0, uses_anonymous_args = 0
 656              	.LVL51:
 657 0000 10B5     		push	{r4, lr}
 658              		.cfi_def_cfa_offset 8
 659              		.cfi_offset 4, -8
 660              		.cfi_offset 14, -4
 661              		.loc 2 352 0
 662 0002 DFED257A 		vldr.32	s15, .L73
 663              		.loc 2 345 0
 664 0006 254C     		ldr	r4, .L73+4
 665 0008 2DED028B 		vpush.64	{d8}
 666              		.cfi_def_cfa_offset 16
 667              		.cfi_offset 80, -16
 668              		.cfi_offset 81, -12
 669              		.loc 2 352 0
 670 000c 60EE277A 		vmul.f32	s15, s0, s15
 671 0010 DFED238A 		vldr.32	s17, .L73+8
 672              		.loc 2 345 0
 673 0014 2368     		ldr	r3, [r4]
 674              		.loc 2 352 0
 675 0016 C7EEA80A 		vdiv.f32	s1, s15, s17
 676              		.loc 2 345 0
 677 001a 82B0     		sub	sp, sp, #8
 678              		.cfi_def_cfa_offset 24
 679              		.loc 2 345 0
 680 001c 0193     		str	r3, [sp, #4]
 681              	.LVL52:
 682 001e B5EEC00A 		vcmpe.f32	s0, #0
 683 0022 F1EE10FA 		vmrs	APSR_nzcv, FPSCR
 684 0026 F1EE047A 		vmov.f32	s15, #5.0e+0
ARM GAS  /var/folders/sw/9r4bn5156wxfd2589391fjvr0000gn/T//ccJ84G1b.s 			page 13


 685 002a B9EE041A 		vmov.f32	s2, #-5.0e+0
 686              	.LVL53:
 687              		.loc 2 355 0
 688 002e D4BF     		ite	le
 689 0030 F0EE411A 		vmovle.f32	s3, s2
 690 0034 F0EE671A 		vmovgt.f32	s3, s15
 691              	.LVL54:
 692              		.loc 2 345 0
 693 0038 B0EE408A 		vmov.f32	s16, s0
 694              		.loc 2 355 0
 695 003c D8BF     		it	le
 696 003e B0EE671A 		vmovle.f32	s2, s15
 697 0042 B0EE600A 		vmov.f32	s0, s1
 698              	.LVL55:
 699 0046 FFF7FEFF 		bl	motors_set_position
 700              	.LVL56:
 701              	.LBB84:
 702              	.LBB85:
 703              		.loc 2 368 0
 704 004a 164B     		ldr	r3, .L73+12
 705              		.loc 2 370 0
 706 004c DFED167A 		vldr.32	s15, .L73+16
 707              		.loc 2 368 0
 708 0050 93ED020A 		vldr.32	s0, [r3, #8]
 709 0054 38EE000A 		vadd.f32	s0, s16, s0
 710              		.loc 2 370 0
 711 0058 B4EEE70A 		vcmpe.f32	s0, s15
 712 005c F1EE10FA 		vmrs	APSR_nzcv, FPSCR
 713              		.loc 2 371 0
 714 0060 C8BF     		it	gt
 715 0062 30EE680A 		vsubgt.f32	s0, s0, s17
 716              		.loc 2 373 0
 717 0066 DFED117A 		vldr.32	s15, .L73+20
 718              		.loc 2 371 0
 719 006a 83ED020A 		vstr.32	s0, [r3, #8]
 720              		.loc 2 373 0
 721 006e B4EEE70A 		vcmpe.f32	s0, s15
 722 0072 F1EE10FA 		vmrs	APSR_nzcv, FPSCR
 723 0076 05D5     		bpl	.L59
 724              		.loc 2 374 0
 725 0078 DFED097A 		vldr.32	s15, .L73+8
 726 007c 30EE270A 		vadd.f32	s0, s0, s15
 727 0080 83ED020A 		vstr.32	s0, [r3, #8]
 728              	.LVL57:
 729              	.L59:
 730              	.LBE85:
 731              	.LBE84:
 732              		.loc 2 364 0
 733 0084 019A     		ldr	r2, [sp, #4]
 734 0086 2368     		ldr	r3, [r4]
 735 0088 9A42     		cmp	r2, r3
 736 008a 03D1     		bne	.L72
 737 008c 02B0     		add	sp, sp, #8
 738              		.cfi_remember_state
 739              		.cfi_def_cfa_offset 16
 740              		@ sp needed
 741 008e BDEC028B 		vldm	sp!, {d8}
ARM GAS  /var/folders/sw/9r4bn5156wxfd2589391fjvr0000gn/T//ccJ84G1b.s 			page 14


 742              		.cfi_restore 80
 743              		.cfi_restore 81
 744              		.cfi_def_cfa_offset 8
 745              	.LVL58:
 746 0092 10BD     		pop	{r4, pc}
 747              	.LVL59:
 748              	.L72:
 749              		.cfi_restore_state
 750 0094 FFF7FEFF 		bl	__stack_chk_fail
 751              	.LVL60:
 752              	.L74:
 753              		.align	2
 754              	.L73:
 755 0098 CD758641 		.word	1099331021
 756 009c 00000000 		.word	__stack_chk_guard
 757 00a0 DB0FC940 		.word	1086918619
 758 00a4 00000000 		.word	.LANCHOR4
 759 00a8 DB0F4940 		.word	1078530011
 760 00ac DB0F49C0 		.word	3226013659
 761              		.cfi_endproc
 762              	.LFE298:
 763              		.size	moteurs_tourne, .-moteurs_tourne
 764              		.section	.text.update_map_angle,"ax",%progbits
 765              		.align	1
 766              		.p2align 4,,15
 767              		.global	update_map_angle
 768              		.syntax unified
 769              		.thumb
 770              		.thumb_func
 771              		.fpu fpv4-sp-d16
 772              		.type	update_map_angle, %function
 773              	update_map_angle:
 774              	.LFB299:
 775              		.loc 2 367 0
 776              		.cfi_startproc
 777              		@ args = 0, pretend = 0, frame = 8
 778              		@ frame_needed = 0, uses_anonymous_args = 0
 779              	.LVL61:
 780 0000 00B5     		push	{lr}
 781              		.cfi_def_cfa_offset 4
 782              		.cfi_offset 14, -4
 783              		.loc 2 368 0
 784 0002 164B     		ldr	r3, .L85
 785              		.loc 2 370 0
 786 0004 9FED167A 		vldr.32	s14, .L85+4
 787              		.loc 2 368 0
 788 0008 D3ED027A 		vldr.32	s15, [r3, #8]
 789              		.loc 2 367 0
 790 000c 154A     		ldr	r2, .L85+8
 791              		.loc 2 368 0
 792 000e 30EE270A 		vadd.f32	s0, s0, s15
 793              	.LVL62:
 794              		.loc 2 367 0
 795 0012 83B0     		sub	sp, sp, #12
 796              		.cfi_def_cfa_offset 16
 797              		.loc 2 370 0
 798 0014 B4EEC70A 		vcmpe.f32	s0, s14
ARM GAS  /var/folders/sw/9r4bn5156wxfd2589391fjvr0000gn/T//ccJ84G1b.s 			page 15


 799 0018 F1EE10FA 		vmrs	APSR_nzcv, FPSCR
 800              		.loc 2 371 0
 801 001c C8BF     		it	gt
 802 001e DFED127A 		vldrgt.32	s15, .L85+12
 803              		.loc 2 367 0
 804 0022 1168     		ldr	r1, [r2]
 805 0024 0191     		str	r1, [sp, #4]
 806              		.loc 2 371 0
 807 0026 C8BF     		it	gt
 808 0028 30EE670A 		vsubgt.f32	s0, s0, s15
 809              		.loc 2 373 0
 810 002c DFED0F7A 		vldr.32	s15, .L85+16
 811              		.loc 2 371 0
 812 0030 83ED020A 		vstr.32	s0, [r3, #8]
 813              		.loc 2 373 0
 814 0034 B4EEE70A 		vcmpe.f32	s0, s15
 815 0038 F1EE10FA 		vmrs	APSR_nzcv, FPSCR
 816 003c 05D5     		bpl	.L75
 817              		.loc 2 374 0
 818 003e DFED0A7A 		vldr.32	s15, .L85+12
 819 0042 30EE270A 		vadd.f32	s0, s0, s15
 820 0046 83ED020A 		vstr.32	s0, [r3, #8]
 821              	.LVL63:
 822              	.L75:
 823              		.loc 2 377 0
 824 004a 0199     		ldr	r1, [sp, #4]
 825 004c 1368     		ldr	r3, [r2]
 826 004e 9942     		cmp	r1, r3
 827 0050 02D1     		bne	.L84
 828 0052 03B0     		add	sp, sp, #12
 829              		.cfi_remember_state
 830              		.cfi_def_cfa_offset 4
 831              		@ sp needed
 832 0054 5DF804FB 		ldr	pc, [sp], #4
 833              	.L84:
 834              		.cfi_restore_state
 835 0058 FFF7FEFF 		bl	__stack_chk_fail
 836              	.LVL64:
 837              	.L86:
 838              		.align	2
 839              	.L85:
 840 005c 00000000 		.word	.LANCHOR4
 841 0060 DB0F4940 		.word	1078530011
 842 0064 00000000 		.word	__stack_chk_guard
 843 0068 DB0FC940 		.word	1086918619
 844 006c DB0F49C0 		.word	3226013659
 845              		.cfi_endproc
 846              	.LFE299:
 847              		.size	update_map_angle, .-update_map_angle
 848              		.section	.text.nouvel_ordre,"ax",%progbits
 849              		.align	1
 850              		.p2align 4,,15
 851              		.global	nouvel_ordre
 852              		.syntax unified
 853              		.thumb
 854              		.thumb_func
 855              		.fpu fpv4-sp-d16
ARM GAS  /var/folders/sw/9r4bn5156wxfd2589391fjvr0000gn/T//ccJ84G1b.s 			page 16


 856              		.type	nouvel_ordre, %function
 857              	nouvel_ordre:
 858              	.LFB300:
 859              		.loc 2 380 0
 860              		.cfi_startproc
 861              		@ args = 0, pretend = 0, frame = 8
 862              		@ frame_needed = 0, uses_anonymous_args = 0
 863              	.LVL65:
 864 0000 F0B5     		push	{r4, r5, r6, r7, lr}
 865              		.cfi_def_cfa_offset 20
 866              		.cfi_offset 4, -20
 867              		.cfi_offset 5, -16
 868              		.cfi_offset 6, -12
 869              		.cfi_offset 7, -8
 870              		.cfi_offset 14, -4
 871 0002 2DED028B 		vpush.64	{d8}
 872              		.cfi_def_cfa_offset 28
 873              		.cfi_offset 80, -28
 874              		.cfi_offset 81, -24
 875              		.loc 2 382 0
 876 0006 594F     		ldr	r7, .L128
 877              		.loc 2 380 0
 878 0008 594C     		ldr	r4, .L128+4
 879              		.loc 2 382 0
 880 000a 3D78     		ldrb	r5, [r7]	@ zero_extendqisi2
 881              	.LVL66:
 882              		.loc 2 380 0
 883 000c 2368     		ldr	r3, [r4]
 884 000e 83B0     		sub	sp, sp, #12
 885              		.cfi_def_cfa_offset 40
 886              		.loc 2 387 0
 887 0010 012D     		cmp	r5, #1
 888              		.loc 2 380 0
 889 0012 0193     		str	r3, [sp, #4]
 890 0014 0646     		mov	r6, r0
 891 0016 B0EE408A 		vmov.f32	s16, s0
 892              		.loc 2 387 0
 893 001a 2DD0     		beq	.L89
 894 001c 1BD3     		bcc	.L90
 895 001e 022D     		cmp	r5, #2
 896 0020 0FD0     		beq	.L91
 897              	.LVL67:
 898              	.L120:
 899              		.loc 2 497 0
 900 0022 019A     		ldr	r2, [sp, #4]
 901 0024 2368     		ldr	r3, [r4]
 902 0026 9A42     		cmp	r2, r3
 903 0028 40F08E80 		bne	.L125
 904 002c 3346     		mov	r3, r6
 905 002e 2A46     		mov	r2, r5
 906              	.L126:
 907 0030 5049     		ldr	r1, .L128+8
 908 0032 5148     		ldr	r0, .L128+12
 909              		.loc 2 500 0
 910 0034 03B0     		add	sp, sp, #12
 911              		.cfi_remember_state
 912              		.cfi_def_cfa_offset 28
ARM GAS  /var/folders/sw/9r4bn5156wxfd2589391fjvr0000gn/T//ccJ84G1b.s 			page 17


 913              		@ sp needed
 914 0036 BDEC028B 		vldm	sp!, {d8}
 915              		.cfi_restore 80
 916              		.cfi_restore 81
 917              		.cfi_def_cfa_offset 20
 918              	.LVL68:
 919 003a BDE8F040 		pop	{r4, r5, r6, r7, lr}
 920              		.cfi_restore 14
 921              		.cfi_restore 7
 922              		.cfi_restore 6
 923              		.cfi_restore 5
 924              		.cfi_restore 4
 925              		.cfi_def_cfa_offset 0
 926              	.LVL69:
 927              		.loc 2 497 0
 928 003e FFF7FEBF 		b	chprintf.constprop.1
 929              	.LVL70:
 930              	.L91:
 931              		.cfi_restore_state
 932              		.loc 2 476 0
 933 0042 0228     		cmp	r0, #2
 934 0044 EDD8     		bhi	.L120
 935              	.LVL71:
 936              	.L87:
 937              		.loc 2 500 0
 938 0046 019A     		ldr	r2, [sp, #4]
 939 0048 2368     		ldr	r3, [r4]
 940 004a 9A42     		cmp	r2, r3
 941 004c 7CD1     		bne	.L125
 942 004e 03B0     		add	sp, sp, #12
 943              		.cfi_remember_state
 944              		.cfi_def_cfa_offset 28
 945              		@ sp needed
 946 0050 BDEC028B 		vldm	sp!, {d8}
 947              		.cfi_restore 80
 948              		.cfi_restore 81
 949              		.cfi_def_cfa_offset 20
 950              	.LVL72:
 951 0054 F0BD     		pop	{r4, r5, r6, r7, pc}
 952              	.LVL73:
 953              	.L90:
 954              		.cfi_restore_state
 955              		.loc 2 390 0
 956 0056 0128     		cmp	r0, #1
 957 0058 26D0     		beq	.L93
 958 005a 66D3     		bcc	.L94
 959 005c 0228     		cmp	r0, #2
 960 005e 5DD1     		bne	.L127
 961              		.loc 2 402 0
 962 0060 3870     		strb	r0, [r7]
 963              		.loc 2 403 0
 964 0062 FFF7FEFF 		bl	right_motor_get_pos
 965              	.LVL74:
 966 0066 0028     		cmp	r0, #0
 967 0068 7AD0     		beq	.L100
 968              	.L102:
 969              		.loc 2 404 0
ARM GAS  /var/folders/sw/9r4bn5156wxfd2589391fjvr0000gn/T//ccJ84G1b.s 			page 18


 970 006a 0223     		movs	r3, #2
 971 006c 0022     		movs	r2, #0
 972 006e 4349     		ldr	r1, .L128+16
 973 0070 4148     		ldr	r0, .L128+12
 974 0072 FFF7FEFF 		bl	chprintf.constprop.1
 975              	.LVL75:
 976 0076 10E0     		b	.L124
 977              	.LVL76:
 978              	.L89:
 979              		.loc 2 431 0
 980 0078 FFF7FEFF 		bl	motors_stop_speed
 981              	.LVL77:
 982              		.loc 2 433 0
 983 007c 012E     		cmp	r6, #1
 984 007e 26D0     		beq	.L110
 985 0080 38D3     		bcc	.L111
 986 0082 022E     		cmp	r6, #2
 987 0084 CDD1     		bne	.L120
 988              		.loc 2 449 0
 989 0086 FFF7FEFF 		bl	motors_stop_speed
 990              	.LVL78:
 991              		.loc 2 451 0
 992 008a 3E70     		strb	r6, [r7]
 993              	.LBB86:
 994              	.LBB87:
 995              		.loc 2 505 0
 996 008c FFF7FEFF 		bl	update_map_position
 997              	.LVL79:
 998              		.loc 2 506 0
 999 0090 3B4B     		ldr	r3, .L128+20
 1000 0092 0022     		movs	r2, #0
 1001 0094 1A60     		str	r2, [r3]	@ float
 1002              		.loc 2 507 0
 1003 0096 FFF7FEFF 		bl	motors_stop_pos
 1004              	.LVL80:
 1005              	.L124:
 1006              	.LBE87:
 1007              	.LBE86:
 1008              		.loc 2 455 0
 1009 009a B0EE480A 		vmov.f32	s0, s16
 1010 009e FFF7FEFF 		bl	moteurs_tourne
 1011              	.LVL81:
 1012              		.loc 2 456 0
 1013 00a2 0023     		movs	r3, #0
 1014 00a4 3B70     		strb	r3, [r7]
 1015              		.loc 2 457 0
 1016 00a6 CEE7     		b	.L87
 1017              	.LVL82:
 1018              	.L93:
 1019              		.loc 2 392 0
 1020 00a8 FFF7FEFF 		bl	right_motor_get_pos
 1021              	.LVL83:
 1022 00ac 0028     		cmp	r0, #0
 1023 00ae 4DD0     		beq	.L96
 1024              	.L98:
 1025              		.loc 2 393 0
 1026 00b0 0123     		movs	r3, #1
ARM GAS  /var/folders/sw/9r4bn5156wxfd2589391fjvr0000gn/T//ccJ84G1b.s 			page 19


 1027 00b2 0022     		movs	r2, #0
 1028 00b4 3149     		ldr	r1, .L128+16
 1029 00b6 3048     		ldr	r0, .L128+12
 1030 00b8 FFF7FEFF 		bl	chprintf.constprop.1
 1031              	.LVL84:
 1032              		.loc 2 394 0
 1033 00bc FFF7FEFF 		bl	motors_stop_pos
 1034              	.LVL85:
 1035              	.L97:
 1036              		.loc 2 397 0
 1037 00c0 019A     		ldr	r2, [sp, #4]
 1038 00c2 2368     		ldr	r3, [r4]
 1039              		.loc 2 396 0
 1040 00c4 0121     		movs	r1, #1
 1041              		.loc 2 397 0
 1042 00c6 9A42     		cmp	r2, r3
 1043              		.loc 2 396 0
 1044 00c8 3970     		strb	r1, [r7]
 1045              		.loc 2 397 0
 1046 00ca 0CD0     		beq	.L113
 1047 00cc 3CE0     		b	.L125
 1048              	.L110:
 1049              		.loc 2 438 0
 1050 00ce 3E70     		strb	r6, [r7]
 1051              	.LBB88:
 1052              	.LBB89:
 1053              		.loc 2 505 0
 1054 00d0 FFF7FEFF 		bl	update_map_position
 1055              	.LVL86:
 1056              		.loc 2 506 0
 1057 00d4 2A4B     		ldr	r3, .L128+20
 1058 00d6 0022     		movs	r2, #0
 1059 00d8 1A60     		str	r2, [r3]	@ float
 1060              		.loc 2 507 0
 1061 00da FFF7FEFF 		bl	motors_stop_pos
 1062              	.LVL87:
 1063              	.LBE89:
 1064              	.LBE88:
 1065              		.loc 2 442 0
 1066 00de 019A     		ldr	r2, [sp, #4]
 1067 00e0 2368     		ldr	r3, [r4]
 1068 00e2 9A42     		cmp	r2, r3
 1069 00e4 30D1     		bne	.L125
 1070              	.L113:
 1071              		.loc 2 500 0
 1072 00e6 03B0     		add	sp, sp, #12
 1073              		.cfi_remember_state
 1074              		.cfi_def_cfa_offset 28
 1075              		@ sp needed
 1076 00e8 BDEC028B 		vldm	sp!, {d8}
 1077              		.cfi_restore 80
 1078              		.cfi_restore 81
 1079              		.cfi_def_cfa_offset 20
 1080              	.LVL88:
 1081 00ec BDE8F040 		pop	{r4, r5, r6, r7, lr}
 1082              		.cfi_restore 14
 1083              		.cfi_restore 7
ARM GAS  /var/folders/sw/9r4bn5156wxfd2589391fjvr0000gn/T//ccJ84G1b.s 			page 20


 1084              		.cfi_restore 6
 1085              		.cfi_restore 5
 1086              		.cfi_restore 4
 1087              		.cfi_def_cfa_offset 0
 1088              	.LVL89:
 1089              		.loc 2 442 0
 1090 00f0 FFF7FEBF 		b	moteurs_avance
 1091              	.LVL90:
 1092              	.L111:
 1093              		.cfi_restore_state
 1094              		.loc 2 461 0
 1095 00f4 FFF7FEFF 		bl	motors_stop_speed
 1096              	.LVL91:
 1097              		.loc 2 462 0
 1098 00f8 0023     		movs	r3, #0
 1099 00fa 3B70     		strb	r3, [r7]
 1100              	.LBB90:
 1101              	.LBB91:
 1102              		.loc 2 505 0
 1103 00fc FFF7FEFF 		bl	update_map_position
 1104              	.LVL92:
 1105              		.loc 2 507 0
 1106 0100 019A     		ldr	r2, [sp, #4]
 1107 0102 2368     		ldr	r3, [r4]
 1108              		.loc 2 506 0
 1109 0104 1E49     		ldr	r1, .L128+20
 1110 0106 0020     		movs	r0, #0
 1111              		.loc 2 507 0
 1112 0108 9A42     		cmp	r2, r3
 1113              		.loc 2 506 0
 1114 010a 0860     		str	r0, [r1]	@ float
 1115              		.loc 2 507 0
 1116 010c 1CD1     		bne	.L125
 1117              	.L114:
 1118              	.LBE91:
 1119              	.LBE90:
 1120              		.loc 2 500 0
 1121 010e 03B0     		add	sp, sp, #12
 1122              		.cfi_remember_state
 1123              		.cfi_def_cfa_offset 28
 1124              		@ sp needed
 1125 0110 BDEC028B 		vldm	sp!, {d8}
 1126              		.cfi_restore 80
 1127              		.cfi_restore 81
 1128              		.cfi_def_cfa_offset 20
 1129              	.LVL93:
 1130 0114 BDE8F040 		pop	{r4, r5, r6, r7, lr}
 1131              		.cfi_restore 14
 1132              		.cfi_restore 7
 1133              		.cfi_restore 6
 1134              		.cfi_restore 5
 1135              		.cfi_restore 4
 1136              		.cfi_def_cfa_offset 0
 1137              	.LVL94:
 1138              	.LBB93:
 1139              	.LBB92:
 1140              		.loc 2 507 0
ARM GAS  /var/folders/sw/9r4bn5156wxfd2589391fjvr0000gn/T//ccJ84G1b.s 			page 21


 1141 0118 FFF7FEBF 		b	motors_stop_pos
 1142              	.LVL95:
 1143              	.L127:
 1144              		.cfi_restore_state
 1145              	.LBE92:
 1146              	.LBE93:
 1147              		.loc 2 423 0
 1148 011c 019A     		ldr	r2, [sp, #4]
 1149 011e 2368     		ldr	r3, [r4]
 1150 0120 9A42     		cmp	r2, r3
 1151 0122 11D1     		bne	.L125
 1152 0124 0346     		mov	r3, r0
 1153 0126 0022     		movs	r2, #0
 1154 0128 82E7     		b	.L126
 1155              	.L94:
 1156              		.loc 2 411 0
 1157 012a FFF7FEFF 		bl	right_motor_get_pos
 1158              	.LVL96:
 1159 012e 90B1     		cbz	r0, .L104
 1160              	.L106:
 1161              		.loc 2 412 0
 1162 0130 0023     		movs	r3, #0
 1163 0132 1A46     		mov	r2, r3
 1164 0134 1149     		ldr	r1, .L128+16
 1165 0136 1048     		ldr	r0, .L128+12
 1166 0138 FFF7FEFF 		bl	chprintf.constprop.1
 1167              	.LVL97:
 1168              	.L105:
 1169              		.loc 2 416 0
 1170 013c 019A     		ldr	r2, [sp, #4]
 1171 013e 2368     		ldr	r3, [r4]
 1172              		.loc 2 415 0
 1173 0140 0021     		movs	r1, #0
 1174              		.loc 2 416 0
 1175 0142 9A42     		cmp	r2, r3
 1176              		.loc 2 415 0
 1177 0144 3970     		strb	r1, [r7]
 1178              		.loc 2 416 0
 1179 0146 E2D0     		beq	.L114
 1180              	.L125:
 1181              		.loc 2 500 0
 1182 0148 FFF7FEFF 		bl	__stack_chk_fail
 1183              	.LVL98:
 1184              	.L96:
 1185              		.loc 2 392 0 discriminator 1
 1186 014c FFF7FEFF 		bl	left_motor_get_pos
 1187              	.LVL99:
 1188 0150 0028     		cmp	r0, #0
 1189 0152 ADD1     		bne	.L98
 1190 0154 B4E7     		b	.L97
 1191              	.L104:
 1192              		.loc 2 411 0 discriminator 1
 1193 0156 FFF7FEFF 		bl	left_motor_get_pos
 1194              	.LVL100:
 1195 015a 0028     		cmp	r0, #0
 1196 015c E8D1     		bne	.L106
 1197 015e EDE7     		b	.L105
ARM GAS  /var/folders/sw/9r4bn5156wxfd2589391fjvr0000gn/T//ccJ84G1b.s 			page 22


 1198              	.L100:
 1199              		.loc 2 403 0 discriminator 1
 1200 0160 FFF7FEFF 		bl	left_motor_get_pos
 1201              	.LVL101:
 1202 0164 0028     		cmp	r0, #0
 1203 0166 80D1     		bne	.L102
 1204 0168 97E7     		b	.L124
 1205              	.L129:
 1206 016a 00BF     		.align	2
 1207              	.L128:
 1208 016c 00000000 		.word	.LANCHOR7
 1209 0170 00000000 		.word	__stack_chk_guard
 1210 0174 38000000 		.word	.LC3
 1211 0178 00000000 		.word	SD3
 1212 017c 00000000 		.word	.LC2
 1213 0180 00000000 		.word	.LANCHOR3
 1214              		.cfi_endproc
 1215              	.LFE300:
 1216              		.size	nouvel_ordre, .-nouvel_ordre
 1217              		.section	.text.postAvance_init,"ax",%progbits
 1218              		.align	1
 1219              		.p2align 4,,15
 1220              		.global	postAvance_init
 1221              		.syntax unified
 1222              		.thumb
 1223              		.thumb_func
 1224              		.fpu fpv4-sp-d16
 1225              		.type	postAvance_init, %function
 1226              	postAvance_init:
 1227              	.LFB301:
 1228              		.loc 2 502 0
 1229              		.cfi_startproc
 1230              		@ args = 0, pretend = 0, frame = 8
 1231              		@ frame_needed = 0, uses_anonymous_args = 0
 1232 0000 10B5     		push	{r4, lr}
 1233              		.cfi_def_cfa_offset 8
 1234              		.cfi_offset 4, -8
 1235              		.cfi_offset 14, -4
 1236 0002 0A4C     		ldr	r4, .L135
 1237 0004 82B0     		sub	sp, sp, #8
 1238              		.cfi_def_cfa_offset 16
 1239              		.loc 2 502 0
 1240 0006 2368     		ldr	r3, [r4]
 1241 0008 0193     		str	r3, [sp, #4]
 1242              		.loc 2 505 0
 1243 000a FFF7FEFF 		bl	update_map_position
 1244              	.LVL102:
 1245              		.loc 2 507 0
 1246 000e 019A     		ldr	r2, [sp, #4]
 1247 0010 2368     		ldr	r3, [r4]
 1248              		.loc 2 506 0
 1249 0012 0749     		ldr	r1, .L135+4
 1250 0014 0020     		movs	r0, #0
 1251              		.loc 2 507 0
 1252 0016 9A42     		cmp	r2, r3
 1253              		.loc 2 506 0
 1254 0018 0860     		str	r0, [r1]	@ float
ARM GAS  /var/folders/sw/9r4bn5156wxfd2589391fjvr0000gn/T//ccJ84G1b.s 			page 23


 1255              		.loc 2 507 0
 1256 001a 04D1     		bne	.L134
 1257              		.loc 2 510 0
 1258 001c 02B0     		add	sp, sp, #8
 1259              		.cfi_remember_state
 1260              		.cfi_def_cfa_offset 8
 1261              		@ sp needed
 1262 001e BDE81040 		pop	{r4, lr}
 1263              		.cfi_restore 14
 1264              		.cfi_restore 4
 1265              		.cfi_def_cfa_offset 0
 1266              		.loc 2 507 0
 1267 0022 FFF7FEBF 		b	motors_stop_pos
 1268              	.LVL103:
 1269              	.L134:
 1270              		.cfi_restore_state
 1271 0026 FFF7FEFF 		bl	__stack_chk_fail
 1272              	.LVL104:
 1273              	.L136:
 1274 002a 00BF     		.align	2
 1275              	.L135:
 1276 002c 00000000 		.word	__stack_chk_guard
 1277 0030 00000000 		.word	.LANCHOR3
 1278              		.cfi_endproc
 1279              	.LFE301:
 1280              		.size	postAvance_init, .-postAvance_init
 1281              		.section	.text.boite_virtuelle,"ax",%progbits
 1282              		.align	1
 1283              		.p2align 4,,15
 1284              		.global	boite_virtuelle
 1285              		.syntax unified
 1286              		.thumb
 1287              		.thumb_func
 1288              		.fpu fpv4-sp-d16
 1289              		.type	boite_virtuelle, %function
 1290              	boite_virtuelle:
 1291              	.LFB302:
 1292              		.loc 2 512 0
 1293              		.cfi_startproc
 1294              		@ args = 0, pretend = 0, frame = 8
 1295              		@ frame_needed = 0, uses_anonymous_args = 0
 1296 0000 30B5     		push	{r4, r5, lr}
 1297              		.cfi_def_cfa_offset 12
 1298              		.cfi_offset 4, -12
 1299              		.cfi_offset 5, -8
 1300              		.cfi_offset 14, -4
 1301              		.loc 2 513 0
 1302 0002 414C     		ldr	r4, .L172
 1303 0004 9FED417A 		vldr.32	s14, .L172+4
 1304 0008 D4ED017A 		vldr.32	s15, [r4, #4]
 1305              		.loc 2 512 0
 1306 000c 404D     		ldr	r5, .L172+8
 1307 000e 83B0     		sub	sp, sp, #12
 1308              		.cfi_def_cfa_offset 24
 1309              		.loc 2 513 0
 1310 0010 F4EEC77A 		vcmpe.f32	s15, s14
 1311              		.loc 2 512 0
ARM GAS  /var/folders/sw/9r4bn5156wxfd2589391fjvr0000gn/T//ccJ84G1b.s 			page 24


 1312 0014 2B68     		ldr	r3, [r5]
 1313 0016 0193     		str	r3, [sp, #4]
 1314              		.loc 2 513 0
 1315 0018 F1EE10FA 		vmrs	APSR_nzcv, FPSCR
 1316 001c 29DD     		ble	.L138
 1317              		.loc 2 514 0
 1318 001e 94ED020A 		vldr.32	s0, [r4, #8]
 1319 0022 B5EEC00A 		vcmpe.f32	s0, #0
 1320 0026 F1EE10FA 		vmrs	APSR_nzcv, FPSCR
 1321 002a 06DD     		ble	.L140
 1322              		.loc 2 514 0 is_stmt 0 discriminator 1
 1323 002c 9FED397A 		vldr.32	s14, .L172+12
 1324 0030 B4EEC70A 		vcmpe.f32	s0, s14
 1325 0034 F1EE10FA 		vmrs	APSR_nzcv, FPSCR
 1326 0038 5DD9     		bls	.L169
 1327              	.L140:
 1328              		.loc 2 517 0 is_stmt 1
 1329 003a 9FED367A 		vldr.32	s14, .L172+12
 1330 003e B4EEC70A 		vcmpe.f32	s0, s14
 1331 0042 F1EE10FA 		vmrs	APSR_nzcv, FPSCR
 1332 0046 14DD     		ble	.L138
 1333              		.loc 2 517 0 is_stmt 0 discriminator 1
 1334 0048 9FED337A 		vldr.32	s14, .L172+16
 1335 004c B4EEC70A 		vcmpe.f32	s0, s14
 1336 0050 F1EE10FA 		vmrs	APSR_nzcv, FPSCR
 1337 0054 0DD5     		bpl	.L138
 1338              		.loc 2 518 0 is_stmt 1
 1339 0056 37EE400A 		vsub.f32	s0, s14, s0
 1340 005a 0220     		movs	r0, #2
 1341 005c 30EE000A 		vadd.f32	s0, s0, s0
 1342              	.L166:
 1343 0060 FFF7FEFF 		bl	nouvel_ordre
 1344              	.LVL105:
 1345              		.loc 2 519 0
 1346 0064 9FED2D0A 		vldr.32	s0, .L172+20
 1347 0068 0120     		movs	r0, #1
 1348 006a FFF7FEFF 		bl	nouvel_ordre
 1349              	.LVL106:
 1350 006e D4ED017A 		vldr.32	s15, [r4, #4]
 1351              	.L138:
 1352              		.loc 2 523 0
 1353 0072 9FED2B7A 		vldr.32	s14, .L172+24
 1354 0076 F4EEC77A 		vcmpe.f32	s15, s14
 1355 007a F1EE10FA 		vmrs	APSR_nzcv, FPSCR
 1356 007e 14D5     		bpl	.L137
 1357              	.LBB96:
 1358              	.LBB97:
 1359              		.loc 2 524 0
 1360 0080 94ED020A 		vldr.32	s0, [r4, #8]
 1361 0084 B5EEC00A 		vcmpe.f32	s0, #0
 1362 0088 F1EE10FA 		vmrs	APSR_nzcv, FPSCR
 1363 008c 13D4     		bmi	.L170
 1364              	.L147:
 1365              		.loc 2 527 0
 1366 008e DFED257A 		vldr.32	s15, .L172+28
 1367 0092 B4EEE70A 		vcmpe.f32	s0, s15
 1368 0096 F1EE10FA 		vmrs	APSR_nzcv, FPSCR
ARM GAS  /var/folders/sw/9r4bn5156wxfd2589391fjvr0000gn/T//ccJ84G1b.s 			page 25


 1369 009a 06D5     		bpl	.L137
 1370 009c DFED227A 		vldr.32	s15, .L172+32
 1371 00a0 B4EEE70A 		vcmpe.f32	s0, s15
 1372 00a4 F1EE10FA 		vmrs	APSR_nzcv, FPSCR
 1373 00a8 1FDC     		bgt	.L171
 1374              	.L137:
 1375              	.LBE97:
 1376              	.LBE96:
 1377              		.loc 2 532 0
 1378 00aa 019A     		ldr	r2, [sp, #4]
 1379 00ac 2B68     		ldr	r3, [r5]
 1380 00ae 9A42     		cmp	r2, r3
 1381 00b0 27D1     		bne	.L167
 1382 00b2 03B0     		add	sp, sp, #12
 1383              		.cfi_remember_state
 1384              		.cfi_def_cfa_offset 12
 1385              		@ sp needed
 1386 00b4 30BD     		pop	{r4, r5, pc}
 1387              	.L170:
 1388              		.cfi_restore_state
 1389              	.LBB100:
 1390              	.LBB98:
 1391              		.loc 2 524 0
 1392 00b6 DFED1B7A 		vldr.32	s15, .L172+28
 1393 00ba B4EEE70A 		vcmpe.f32	s0, s15
 1394 00be F1EE10FA 		vmrs	APSR_nzcv, FPSCR
 1395 00c2 E4DB     		blt	.L147
 1396              		.loc 2 525 0
 1397 00c4 F8EE007A 		vmov.f32	s15, #-2.0e+0
 1398 00c8 20EE270A 		vmul.f32	s0, s0, s15
 1399 00cc 0220     		movs	r0, #2
 1400              	.L168:
 1401              		.loc 2 528 0
 1402 00ce FFF7FEFF 		bl	nouvel_ordre
 1403              	.LVL107:
 1404              		.loc 2 529 0
 1405 00d2 019A     		ldr	r2, [sp, #4]
 1406 00d4 2B68     		ldr	r3, [r5]
 1407 00d6 9A42     		cmp	r2, r3
 1408 00d8 13D1     		bne	.L167
 1409 00da 9FED100A 		vldr.32	s0, .L172+20
 1410 00de 0120     		movs	r0, #1
 1411              	.LBE98:
 1412              	.LBE100:
 1413              		.loc 2 532 0
 1414 00e0 03B0     		add	sp, sp, #12
 1415              		.cfi_remember_state
 1416              		.cfi_def_cfa_offset 12
 1417              		@ sp needed
 1418 00e2 BDE83040 		pop	{r4, r5, lr}
 1419              		.cfi_restore 14
 1420              		.cfi_restore 5
 1421              		.cfi_restore 4
 1422              		.cfi_def_cfa_offset 0
 1423              	.LBB101:
 1424              	.LBB99:
 1425              		.loc 2 529 0
ARM GAS  /var/folders/sw/9r4bn5156wxfd2589391fjvr0000gn/T//ccJ84G1b.s 			page 26


 1426 00e6 FFF7FEBF 		b	nouvel_ordre
 1427              	.LVL108:
 1428              	.L171:
 1429              		.cfi_restore_state
 1430              		.loc 2 528 0
 1431 00ea 37EEC00A 		vsub.f32	s0, s15, s0
 1432 00ee 0220     		movs	r0, #2
 1433 00f0 30EE000A 		vadd.f32	s0, s0, s0
 1434 00f4 EBE7     		b	.L168
 1435              	.L169:
 1436              	.LBE99:
 1437              	.LBE101:
 1438              		.loc 2 515 0
 1439 00f6 F8EE007A 		vmov.f32	s15, #-2.0e+0
 1440 00fa 20EE270A 		vmul.f32	s0, s0, s15
 1441 00fe 0220     		movs	r0, #2
 1442 0100 AEE7     		b	.L166
 1443              	.L167:
 1444              		.loc 2 532 0
 1445 0102 FFF7FEFF 		bl	__stack_chk_fail
 1446              	.LVL109:
 1447              	.L173:
 1448 0106 00BF     		.align	2
 1449              	.L172:
 1450 0108 00000000 		.word	.LANCHOR4
 1451 010c 00002042 		.word	1109393408
 1452 0110 00000000 		.word	__stack_chk_guard
 1453 0114 DB0FC93F 		.word	1070141403
 1454 0118 DB0F4940 		.word	1078530011
 1455 011c 00000000 		.word	0
 1456 0120 000020C2 		.word	3256877056
 1457 0124 DB0FC9BF 		.word	3217625051
 1458 0128 DB0F49C0 		.word	3226013659
 1459              		.cfi_endproc
 1460              	.LFE302:
 1461              		.size	boite_virtuelle, .-boite_virtuelle
 1462              		.section	.text.management,"ax",%progbits
 1463              		.align	1
 1464              		.p2align 4,,15
 1465              		.global	management
 1466              		.syntax unified
 1467              		.thumb
 1468              		.thumb_func
 1469              		.fpu fpv4-sp-d16
 1470              		.type	management, %function
 1471              	management:
 1472              	.LFB295:
 1473              		.loc 2 83 0
 1474              		.cfi_startproc
 1475              		@ args = 0, pretend = 0, frame = 16
 1476              		@ frame_needed = 0, uses_anonymous_args = 0
 1477              	.LVL110:
 1478 0000 30B5     		push	{r4, r5, lr}
 1479              		.cfi_def_cfa_offset 12
 1480              		.cfi_offset 4, -12
 1481              		.cfi_offset 5, -8
 1482              		.cfi_offset 14, -4
ARM GAS  /var/folders/sw/9r4bn5156wxfd2589391fjvr0000gn/T//ccJ84G1b.s 			page 27


 1483 0002 4B4C     		ldr	r4, .L195
 1484              		.loc 2 85 0
 1485 0004 0378     		ldrb	r3, [r0]	@ zero_extendqisi2
 1486 0006 4B4D     		ldr	r5, .L195+4
 1487              		.loc 2 83 0
 1488 0008 2268     		ldr	r2, [r4]
 1489              		.loc 2 85 0
 1490 000a 2B70     		strb	r3, [r5]
 1491              	.LVL111:
 1492              		.loc 2 83 0
 1493 000c 85B0     		sub	sp, sp, #20
 1494              		.cfi_def_cfa_offset 32
 1495              		.loc 2 83 0
 1496 000e 0392     		str	r2, [sp, #12]
 1497              		.loc 2 94 0
 1498 0010 062B     		cmp	r3, #6
 1499 0012 07D8     		bhi	.L174
 1500 0014 DFE803F0 		tbb	[pc, r3]
 1501              	.L177:
 1502 0018 18       		.byte	(.L176-.L177)/2
 1503 0019 29       		.byte	(.L178-.L177)/2
 1504 001a 3F       		.byte	(.L179-.L177)/2
 1505 001b 06       		.byte	(.L174-.L177)/2
 1506 001c 0C       		.byte	(.L180-.L177)/2
 1507 001d 06       		.byte	(.L174-.L177)/2
 1508 001e 04       		.byte	(.L181-.L177)/2
 1509 001f 00       		.p2align 1
 1510              	.L181:
 1511              		.loc 2 223 0
 1512 0020 0023     		movs	r3, #0
 1513 0022 0370     		strb	r3, [r0]
 1514              	.LVL112:
 1515              	.L174:
 1516              		.loc 2 228 0
 1517 0024 039A     		ldr	r2, [sp, #12]
 1518 0026 2368     		ldr	r3, [r4]
 1519 0028 9A42     		cmp	r2, r3
 1520 002a 7FD1     		bne	.L193
 1521 002c 05B0     		add	sp, sp, #20
 1522              		.cfi_remember_state
 1523              		.cfi_def_cfa_offset 12
 1524              		@ sp needed
 1525 002e 30BD     		pop	{r4, r5, pc}
 1526              	.LVL113:
 1527              	.L180:
 1528              		.cfi_restore_state
 1529              		.loc 2 209 0 discriminator 8
 1530 0030 414B     		ldr	r3, .L195+8
 1531 0032 2025     		movs	r5, #32
 1532              		.loc 2 210 0 discriminator 8
 1533 0034 4020     		movs	r0, #64
 1534              	.LVL114:
 1535              		.loc 2 211 0 discriminator 8
 1536 0036 4FF48061 		mov	r1, #1024
 1537              		.loc 2 212 0 discriminator 8
 1538 003a 4FF00062 		mov	r2, #134217728
 1539              		.loc 2 209 0 discriminator 8
ARM GAS  /var/folders/sw/9r4bn5156wxfd2589391fjvr0000gn/T//ccJ84G1b.s 			page 28


 1540 003e 9D61     		str	r5, [r3, #24]
 1541              		.loc 2 210 0 discriminator 8
 1542 0040 9861     		str	r0, [r3, #24]
 1543              		.loc 2 211 0 discriminator 8
 1544 0042 9961     		str	r1, [r3, #24]
 1545              		.loc 2 212 0 discriminator 8
 1546 0044 9A61     		str	r2, [r3, #24]
 1547              		.loc 2 213 0 discriminator 8
 1548 0046 EDE7     		b	.L174
 1549              	.LVL115:
 1550              	.L176:
 1551              		.loc 2 104 0 discriminator 8
 1552 0048 3B4B     		ldr	r3, .L195+8
 1553              		.loc 2 109 0 discriminator 8
 1554 004a 3C4A     		ldr	r2, .L195+12
 1555              		.loc 2 104 0 discriminator 8
 1556 004c 4FF40011 		mov	r1, #2097152
 1557 0050 9961     		str	r1, [r3, #24]
 1558              		.loc 2 105 0 discriminator 8
 1559 0052 4021     		movs	r1, #64
 1560 0054 9961     		str	r1, [r3, #24]
 1561              		.loc 2 106 0 discriminator 8
 1562 0056 4FF48061 		mov	r1, #1024
 1563 005a 9961     		str	r1, [r3, #24]
 1564              		.loc 2 107 0 discriminator 8
 1565 005c 4FF40061 		mov	r1, #2048
 1566 0060 9961     		str	r1, [r3, #24]
 1567              		.loc 2 109 0 discriminator 8
 1568 0062 1378     		ldrb	r3, [r2]	@ zero_extendqisi2
 1569 0064 0370     		strb	r3, [r0]
 1570              		.loc 2 110 0 discriminator 8
 1571 0066 2B70     		strb	r3, [r5]
 1572              		.loc 2 112 0 discriminator 8
 1573 0068 DCE7     		b	.L174
 1574              	.LVL116:
 1575              	.L178:
 1576 006a 0190     		str	r0, [sp, #4]
 1577              		.loc 2 120 0
 1578 006c FFF7FEFF 		bl	proximity_start
 1579              	.LVL117:
 1580              		.loc 2 121 0
 1581 0070 FFF7FEFF 		bl	calibrate_ir
 1582              	.LVL118:
 1583              		.loc 2 128 0
 1584 0074 304B     		ldr	r3, .L195+8
 1585 0076 2022     		movs	r2, #32
 1586              		.loc 2 129 0
 1587 0078 4FF48001 		mov	r1, #4194304
 1588              		.loc 2 128 0
 1589 007c 9A61     		str	r2, [r3, #24]
 1590              	.LVL119:
 1591              		.loc 2 129 0
 1592 007e 9961     		str	r1, [r3, #24]
 1593              		.loc 2 130 0
 1594 0080 4FF08062 		mov	r2, #67108864
 1595              		.loc 2 131 0
 1596 0084 4FF40061 		mov	r1, #2048
ARM GAS  /var/folders/sw/9r4bn5156wxfd2589391fjvr0000gn/T//ccJ84G1b.s 			page 29


 1597              		.loc 2 130 0
 1598 0088 9A61     		str	r2, [r3, #24]
 1599              		.loc 2 131 0
 1600 008a 9961     		str	r1, [r3, #24]
 1601              		.loc 2 137 0
 1602 008c 0198     		ldr	r0, [sp, #4]
 1603 008e 0222     		movs	r2, #2
 1604 0090 0270     		strb	r2, [r0]
 1605              		.loc 2 138 0
 1606 0092 2A70     		strb	r2, [r5]
 1607              		.loc 2 140 0
 1608 0094 C6E7     		b	.L174
 1609              	.LVL120:
 1610              	.L179:
 1611              		.loc 2 151 0 discriminator 8
 1612 0096 284B     		ldr	r3, .L195+8
 1613 0098 2025     		movs	r5, #32
 1614              		.loc 2 152 0 discriminator 8
 1615 009a 4FF48000 		mov	r0, #4194304
 1616              	.LVL121:
 1617              		.loc 2 153 0 discriminator 8
 1618 009e 4FF08061 		mov	r1, #67108864
 1619              		.loc 2 154 0 discriminator 8
 1620 00a2 4FF00062 		mov	r2, #134217728
 1621              		.loc 2 151 0 discriminator 8
 1622 00a6 9D61     		str	r5, [r3, #24]
 1623              		.loc 2 152 0 discriminator 8
 1624 00a8 9861     		str	r0, [r3, #24]
 1625              		.loc 2 153 0 discriminator 8
 1626 00aa 9961     		str	r1, [r3, #24]
 1627              		.loc 2 154 0 discriminator 8
 1628 00ac 9A61     		str	r2, [r3, #24]
 1629              		.loc 2 157 0 discriminator 8
 1630 00ae FFF7FEFF 		bl	obstacle
 1631              	.LVL122:
 1632 00b2 D8B9     		cbnz	r0, .L194
 1633              	.L182:
 1634              		.loc 2 165 0
 1635 00b4 FFF7FEFF 		bl	close_line
 1636              	.LVL123:
 1637              		.loc 2 167 0
 1638 00b8 0228     		cmp	r0, #2
 1639              		.loc 2 165 0
 1640 00ba 0546     		mov	r5, r0
 1641              	.LVL124:
 1642              		.loc 2 167 0
 1643 00bc 2CD0     		beq	.L184
 1644 00be 0328     		cmp	r0, #3
 1645 00c0 1FD0     		beq	.L185
 1646 00c2 0128     		cmp	r0, #1
 1647 00c4 09D1     		bne	.L183
 1648              		.loc 2 171 0
 1649 00c6 9FED1E0A 		vldr.32	s0, .L195+16
 1650 00ca 0220     		movs	r0, #2
 1651              	.LVL125:
 1652 00cc FFF7FEFF 		bl	nouvel_ordre
 1653              	.LVL126:
ARM GAS  /var/folders/sw/9r4bn5156wxfd2589391fjvr0000gn/T//ccJ84G1b.s 			page 30


 1654              		.loc 2 172 0
 1655 00d0 2846     		mov	r0, r5
 1656 00d2 9FED1C0A 		vldr.32	s0, .L195+20
 1657 00d6 FFF7FEFF 		bl	nouvel_ordre
 1658              	.LVL127:
 1659              	.L183:
 1660              		.loc 2 188 0
 1661 00da 039A     		ldr	r2, [sp, #12]
 1662 00dc 2368     		ldr	r3, [r4]
 1663 00de 9A42     		cmp	r2, r3
 1664 00e0 24D1     		bne	.L193
 1665              		.loc 2 228 0
 1666 00e2 05B0     		add	sp, sp, #20
 1667              		.cfi_remember_state
 1668              		.cfi_def_cfa_offset 12
 1669              		@ sp needed
 1670 00e4 BDE83040 		pop	{r4, r5, lr}
 1671              		.cfi_restore 14
 1672              		.cfi_restore 5
 1673              		.cfi_restore 4
 1674              		.cfi_def_cfa_offset 0
 1675              		.loc 2 188 0
 1676 00e8 FFF7FEBF 		b	boite_virtuelle
 1677              	.LVL128:
 1678              	.L194:
 1679              		.cfi_restore_state
 1680              		.loc 2 160 0
 1681 00ec 9FED160A 		vldr.32	s0, .L195+24
 1682 00f0 0220     		movs	r0, #2
 1683 00f2 FFF7FEFF 		bl	nouvel_ordre
 1684              	.LVL129:
 1685              		.loc 2 161 0
 1686 00f6 9FED130A 		vldr.32	s0, .L195+20
 1687 00fa 0120     		movs	r0, #1
 1688 00fc FFF7FEFF 		bl	nouvel_ordre
 1689              	.LVL130:
 1690 0100 D8E7     		b	.L182
 1691              	.LVL131:
 1692              	.L185:
 1693              		.loc 2 179 0
 1694 0102 9FED120A 		vldr.32	s0, .L195+28
 1695 0106 0220     		movs	r0, #2
 1696              	.LVL132:
 1697 0108 FFF7FEFF 		bl	nouvel_ordre
 1698              	.LVL133:
 1699              		.loc 2 180 0
 1700 010c 9FED0D0A 		vldr.32	s0, .L195+20
 1701 0110 0120     		movs	r0, #1
 1702 0112 FFF7FEFF 		bl	nouvel_ordre
 1703              	.LVL134:
 1704              		.loc 2 181 0
 1705 0116 E0E7     		b	.L183
 1706              	.LVL135:
 1707              	.L184:
 1708              		.loc 2 175 0
 1709 0118 9FED0B0A 		vldr.32	s0, .L195+24
 1710 011c FFF7FEFF 		bl	nouvel_ordre
ARM GAS  /var/folders/sw/9r4bn5156wxfd2589391fjvr0000gn/T//ccJ84G1b.s 			page 31


 1711              	.LVL136:
 1712              		.loc 2 176 0
 1713 0120 9FED080A 		vldr.32	s0, .L195+20
 1714 0124 0120     		movs	r0, #1
 1715 0126 FFF7FEFF 		bl	nouvel_ordre
 1716              	.LVL137:
 1717              		.loc 2 177 0
 1718 012a D6E7     		b	.L183
 1719              	.LVL138:
 1720              	.L193:
 1721              		.loc 2 228 0
 1722 012c FFF7FEFF 		bl	__stack_chk_fail
 1723              	.LVL139:
 1724              	.L196:
 1725              		.align	2
 1726              	.L195:
 1727 0130 00000000 		.word	__stack_chk_guard
 1728 0134 00000000 		.word	.LANCHOR1
 1729 0138 000C0240 		.word	1073875968
 1730 013c 00000000 		.word	.LANCHOR2
 1731 0140 DB0F4940 		.word	1078530011
 1732 0144 00000000 		.word	0
 1733 0148 DB0FC93F 		.word	1070141403
 1734 014c DB0FC9BF 		.word	3217625051
 1735              		.cfi_endproc
 1736              	.LFE295:
 1737              		.size	management, .-management
 1738              		.section	.text.go_home,"ax",%progbits
 1739              		.align	1
 1740              		.p2align 4,,15
 1741              		.global	go_home
 1742              		.syntax unified
 1743              		.thumb
 1744              		.thumb_func
 1745              		.fpu fpv4-sp-d16
 1746              		.type	go_home, %function
 1747              	go_home:
 1748              	.LFB303:
 1749              		.loc 2 534 0
 1750              		.cfi_startproc
 1751              		@ args = 0, pretend = 0, frame = 8
 1752              		@ frame_needed = 0, uses_anonymous_args = 0
 1753 0000 00B5     		push	{lr}
 1754              		.cfi_def_cfa_offset 4
 1755              		.cfi_offset 14, -4
 1756 0002 064B     		ldr	r3, .L201
 1757 0004 83B0     		sub	sp, sp, #12
 1758              		.cfi_def_cfa_offset 16
 1759              		.loc 2 534 0
 1760 0006 1A68     		ldr	r2, [r3]
 1761 0008 0192     		str	r2, [sp, #4]
 1762              		.loc 2 536 0
 1763 000a 019A     		ldr	r2, [sp, #4]
 1764 000c 1B68     		ldr	r3, [r3]
 1765 000e 9A42     		cmp	r2, r3
 1766 0010 02D1     		bne	.L200
 1767 0012 03B0     		add	sp, sp, #12
ARM GAS  /var/folders/sw/9r4bn5156wxfd2589391fjvr0000gn/T//ccJ84G1b.s 			page 32


 1768              		.cfi_remember_state
 1769              		.cfi_def_cfa_offset 4
 1770              		@ sp needed
 1771 0014 5DF804FB 		ldr	pc, [sp], #4
 1772              	.L200:
 1773              		.cfi_restore_state
 1774 0018 FFF7FEFF 		bl	__stack_chk_fail
 1775              	.LVL140:
 1776              	.L202:
 1777              		.align	2
 1778              	.L201:
 1779 001c 00000000 		.word	__stack_chk_guard
 1780              		.cfi_endproc
 1781              	.LFE303:
 1782              		.size	go_home, .-go_home
 1783              		.section	.bss.action,"aw",%nobits
 1784              		.set	.LANCHOR7,. + 0
 1785              		.type	action, %object
 1786              		.size	action, 1
 1787              	action:
 1788 0000 00       		.space	1
 1789              		.section	.bss.counted_current_steps,"aw",%nobits
 1790              		.align	2
 1791              		.set	.LANCHOR3,. + 0
 1792              		.type	counted_current_steps, %object
 1793              		.size	counted_current_steps, 4
 1794              	counted_current_steps:
 1795 0000 00000000 		.space	4
 1796              		.section	.bss.currentStateManagement,"aw",%nobits
 1797              		.set	.LANCHOR1,. + 0
 1798              		.type	currentStateManagement, %object
 1799              		.size	currentStateManagement, 1
 1800              	currentStateManagement:
 1801 0000 00       		.space	1
 1802              		.section	.bss.ePuck,"aw",%nobits
 1803              		.align	2
 1804              		.set	.LANCHOR4,. + 0
 1805              		.type	ePuck, %object
 1806              		.size	ePuck, 12
 1807              	ePuck:
 1808 0000 00000000 		.space	12
 1808      00000000 
 1808      00000000 
 1809              		.section	.bss.nextState,"aw",%nobits
 1810              		.set	.LANCHOR2,. + 0
 1811              		.type	nextState, %object
 1812              		.size	nextState, 1
 1813              	nextState:
 1814 0000 00       		.space	1
 1815              		.section	.bss.waThdMapping,"aw",%nobits
 1816              		.align	3
 1817              		.set	.LANCHOR0,. + 0
 1818              		.type	waThdMapping, %object
 1819              		.size	waThdMapping, 1000
 1820              	waThdMapping:
 1821 0000 00000000 		.space	1000
 1821      00000000 
ARM GAS  /var/folders/sw/9r4bn5156wxfd2589391fjvr0000gn/T//ccJ84G1b.s 			page 33


 1821      00000000 
 1821      00000000 
 1821      00000000 
 1822              		.section	.rodata.ThdMapping.str1.4,"aMS",%progbits,1
 1823              		.align	2
 1824              	.LC1:
 1825 0000 75706461 		.ascii	"update x=%f .... y=%f .... angle=%f  \012\000"
 1825      74652078 
 1825      3D256620 
 1825      2E2E2E2E 
 1825      20793D25 
 1826              		.section	.rodata.__FUNCTION__.14924,"a",%progbits
 1827              		.align	2
 1828              		.set	.LANCHOR5,. + 0
 1829              		.type	__FUNCTION__.14924, %object
 1830              		.size	__FUNCTION__.14924, 11
 1831              	__FUNCTION__.14924:
 1832 0000 5468644D 		.ascii	"ThdMapping\000"
 1832      61707069 
 1832      6E6700
 1833              		.section	.rodata.__func__.8784,"a",%progbits
 1834              		.align	2
 1835              		.set	.LANCHOR6,. + 0
 1836              		.type	__func__.8784, %object
 1837              		.size	__func__.8784, 12
 1838              	__func__.8784:
 1839 0000 63685379 		.ascii	"chSysUnlock\000"
 1839      73556E6C 
 1839      6F636B00 
 1840              		.section	.rodata.nouvel_ordre.str1.4,"aMS",%progbits,1
 1841              		.align	2
 1842              	.LC2:
 1843 0000 6572726F 		.ascii	"error arret positon non nulle\012 previous=%d , nex"
 1843      72206172 
 1843      72657420 
 1843      706F7369 
 1843      746F6E20 
 1844 0030 743D2564 		.ascii	"t=%d\012\000"
 1844      0A00
 1845 0036 0000     		.space	2
 1846              	.LC3:
 1847 0038 4552524F 		.ascii	"ERROR operators not coorect \012!!! previous=%d , n"
 1847      52206F70 
 1847      65726174 
 1847      6F727320 
 1847      6E6F7420 
 1848 0068 6578743D 		.ascii	"ext=%d\012\000"
 1848      25640A00 
 1849              		.section	.rodata.update_map_position.str1.4,"aMS",%progbits,1
 1850              		.align	2
 1851              	.LC0:
 1852 0000 6D61705F 		.ascii	"map_position  dist=%f !!! d_x=%f !!! d_y=%f Steeeep"
 1852      706F7369 
 1852      74696F6E 
 1852      20206469 
 1852      73743D25 
 1853 0033 733D2566 		.ascii	"s=%f \012\000"
ARM GAS  /var/folders/sw/9r4bn5156wxfd2589391fjvr0000gn/T//ccJ84G1b.s 			page 34


 1853      200A00
 1854              		.text
 1855              	.Letext0:
 1856              		.file 7 "/Applications/Eclipse_e-puck2.app/Contents/Eclipse_e-puck2/Tools/gcc-arm-none-eabi-7-2017
 1857              		.file 8 "/Applications/Eclipse_e-puck2.app/Contents/Eclipse_e-puck2/Tools/gcc-arm-none-eabi-7-2017
 1858              		.file 9 "/Applications/Eclipse_e-puck2.app/Contents/Eclipse_e-puck2/Tools/gcc-arm-none-eabi-7-2017
 1859              		.file 10 "/Applications/Eclipse_e-puck2.app/Contents/Eclipse_e-puck2/Tools/gcc-arm-none-eabi-7-201
 1860              		.file 11 "/Applications/Eclipse_e-puck2.app/Contents/Eclipse_e-puck2/Tools/gcc-arm-none-eabi-7-201
 1861              		.file 12 "/Applications/Eclipse_e-puck2.app/Contents/Eclipse_e-puck2/Tools/gcc-arm-none-eabi-7-201
 1862              		.file 13 "/Applications/Eclipse_e-puck2.app/Contents/Eclipse_e-puck2/Tools/gcc-arm-none-eabi-7-201
 1863              		.file 14 "<built-in>"
 1864              		.file 15 "/Applications/Eclipse_e-puck2.app/Contents/Eclipse_e-puck2/Tools/gcc-arm-none-eabi-7-201
 1865              		.file 16 "/Applications/Eclipse_e-puck2.app/Contents/Eclipse_e-puck2/Tools/gcc-arm-none-eabi-7-201
 1866              		.file 17 "../../lib/e-puck2_main-processor/ChibiOS//os/rt/ports/ARMCMx/compilers/GCC/chtypes.h"
 1867              		.file 18 "../../lib/e-puck2_main-processor/ChibiOS//os/rt/include/chsystypes.h"
 1868              		.file 19 "../../lib/e-puck2_main-processor/ChibiOS//os/rt/include/chschd.h"
 1869              		.file 20 "../../lib/e-puck2_main-processor/ChibiOS//os/ext/CMSIS/include/core_cm4.h"
 1870              		.file 21 "../../lib/e-puck2_main-processor/ChibiOS//os/ext/CMSIS/ST/system_stm32f4xx.h"
 1871              		.file 22 "../../lib/e-puck2_main-processor/ChibiOS//os/ext/CMSIS/ST/stm32f407xx.h"
 1872              		.file 23 "../../lib/e-puck2_main-processor/ChibiOS//os/rt/ports/ARMCMx/chcore.h"
 1873              		.file 24 "../../lib/e-puck2_main-processor/ChibiOS//os/rt/ports/ARMCMx/chcore_v7m.h"
 1874              		.file 25 "../../lib/e-puck2_main-processor/ChibiOS//os/rt/include/chdebug.h"
 1875              		.file 26 "../../lib/e-puck2_main-processor/ChibiOS//os/rt/include/chtm.h"
 1876              		.file 27 "../../lib/e-puck2_main-processor/ChibiOS//os/rt/include/chstats.h"
 1877              		.file 28 "../../lib/e-puck2_main-processor/ChibiOS//os/rt/include/chsem.h"
 1878              		.file 29 "../../lib/e-puck2_main-processor/ChibiOS//os/rt/include/chmtx.h"
 1879              		.file 30 "../../lib/e-puck2_main-processor/ChibiOS//os/rt/include/chevents.h"
 1880              		.file 31 "../../lib/e-puck2_main-processor/ChibiOS//os/rt/include/chqueues.h"
 1881              		.file 32 "../../lib/e-puck2_main-processor/ChibiOS//os/rt/include/chstreams.h"
 1882              		.file 33 "../../lib/e-puck2_main-processor/ChibiOS//os/hal/ports/STM32/STM32F4xx/stm32_dma.h"
 1883              		.file 34 "../../lib/e-puck2_main-processor/ChibiOS//os/hal/include/hal_ioblock.h"
 1884              		.file 35 "../../lib/e-puck2_main-processor/ChibiOS//os/hal/ports/STM32/LLD/GPIOv2/pal_lld.h"
 1885              		.file 36 "../../lib/e-puck2_main-processor/ChibiOS//os/hal/include/adc.h"
 1886              		.file 37 "../../lib/e-puck2_main-processor/ChibiOS//os/hal/ports/STM32/STM32F4xx/adc_lld.h"
 1887              		.file 38 "../../lib/e-puck2_main-processor/ChibiOS//os/hal/include/can.h"
 1888              		.file 39 "../../lib/e-puck2_main-processor/ChibiOS//os/hal/ports/STM32/LLD/can_lld.h"
 1889              		.file 40 "../../lib/e-puck2_main-processor/ChibiOS//os/hal/include/dac.h"
 1890              		.file 41 "../../lib/e-puck2_main-processor/ChibiOS//os/hal/ports/STM32/LLD/DACv1/dac_lld.h"
 1891              		.file 42 "../../lib/e-puck2_main-processor/ChibiOS//os/hal/include/ext.h"
 1892              		.file 43 "../../lib/e-puck2_main-processor/ChibiOS//os/hal/ports/STM32/LLD/ext_lld.h"
 1893              		.file 44 "../../lib/e-puck2_main-processor/ChibiOS//os/hal/include/gpt.h"
 1894              		.file 45 "../../lib/e-puck2_main-processor/ChibiOS//os/hal/ports/STM32/LLD/TIMv1/gpt_lld.h"
 1895              		.file 46 "../../lib/e-puck2_main-processor/ChibiOS//os/hal/ports/STM32/LLD/TIMv1/stm32_tim.h"
 1896              		.file 47 "../../lib/e-puck2_main-processor/ChibiOS//os/hal/include/i2c.h"
 1897              		.file 48 "../../lib/e-puck2_main-processor/ChibiOS//os/hal/ports/STM32/LLD/I2Cv1/i2c_lld.h"
 1898              		.file 49 "../../lib/e-puck2_main-processor/ChibiOS//os/hal/include/i2s.h"
 1899              		.file 50 "../../lib/e-puck2_main-processor/ChibiOS//os/hal/ports/STM32/LLD/SPIv1/i2s_lld.h"
 1900              		.file 51 "../../lib/e-puck2_main-processor/ChibiOS//os/hal/include/pwm.h"
 1901              		.file 52 "../../lib/e-puck2_main-processor/ChibiOS//os/hal/ports/STM32/LLD/TIMv1/pwm_lld.h"
 1902              		.file 53 "../../lib/e-puck2_main-processor/ChibiOS//os/hal/include/serial.h"
 1903              		.file 54 "../../lib/e-puck2_main-processor/ChibiOS//os/hal/ports/STM32/LLD/USARTv1/serial_lld.h"
 1904              		.file 55 "../../lib/e-puck2_main-processor/ChibiOS//os/hal/include/sdc.h"
 1905              		.file 56 "../../lib/e-puck2_main-processor/ChibiOS//os/hal/ports/STM32/LLD/sdc_lld.h"
 1906              		.file 57 "../../lib/e-puck2_main-processor/ChibiOS//os/hal/include/spi.h"
 1907              		.file 58 "../../lib/e-puck2_main-processor/ChibiOS//os/hal/ports/STM32/LLD/SPIv1/spi_lld.h"
 1908              		.file 59 "../../lib/e-puck2_main-processor/ChibiOS//os/hal/include/usb.h"
 1909              		.file 60 "../../lib/e-puck2_main-processor/ChibiOS//os/hal/ports/STM32/LLD/OTGv1/usb_lld.h"
ARM GAS  /var/folders/sw/9r4bn5156wxfd2589391fjvr0000gn/T//ccJ84G1b.s 			page 35


 1910              		.file 61 "../../lib/e-puck2_main-processor/ChibiOS//os/hal/ports/STM32/LLD/OTGv1/stm32_otg.h"
 1911              		.file 62 "../../lib/e-puck2_main-processor/ChibiOS_ext/os/hal/include/../ports/STM32/STM32F4xx/dcm
 1912              		.file 63 "/Applications/Eclipse_e-puck2.app/Contents/Eclipse_e-puck2/Tools/gcc-arm-none-eabi-7-201
 1913              		.file 64 "../../lib/e-puck2_main-processor/src/msgbus/messagebus.h"
 1914              		.file 65 "../../lib/e-puck2_main-processor/src/parameter/parameter.h"
 1915              		.file 66 "./main.h"
 1916              		.file 67 "/Applications/Eclipse_e-puck2.app/Contents/Eclipse_e-puck2/Tools/gcc-arm-none-eabi-7-201
 1917              		.file 68 "./game_management.h"
 1918              		.file 69 "./camera_processing.h"
 1919              		.file 70 "./motors_processing.h"
 1920              		.file 71 "../../lib/e-puck2_main-processor/src/motors.h"
 1921              		.file 72 "../../lib/e-puck2_main-processor/ChibiOS//os/ext/CMSIS/include/arm_math.h"
 1922              		.file 73 "../../lib/e-puck2_main-processor/src/sensors/proximity.h"
 1923              		.file 74 "./ir_thread.h"
 1924              		.file 75 "../../lib/e-puck2_main-processor/ChibiOS//os/rt/include/chthreads.h"