ARM GAS  /var/folders/sw/9r4bn5156wxfd2589391fjvr0000gn/T//ccorU2n2.s 			page 1


   1              		.cpu cortex-m4
   2              		.eabi_attribute 27, 1
   3              		.eabi_attribute 28, 1
   4              		.eabi_attribute 20, 1
   5              		.eabi_attribute 21, 1
   6              		.eabi_attribute 23, 3
   7              		.eabi_attribute 24, 1
   8              		.eabi_attribute 25, 1
   9              		.eabi_attribute 26, 1
  10              		.eabi_attribute 30, 2
  11              		.eabi_attribute 34, 1
  12              		.eabi_attribute 18, 4
  13              		.file	"motors_processing.c"
  14              		.text
  15              	.Ltext0:
  16              		.cfi_sections	.debug_frame
  17              		.section	.text.chprintf.constprop.0,"ax",%progbits
  18              		.align	1
  19              		.p2align 4,,15
  20              		.syntax unified
  21              		.thumb
  22              		.thumb_func
  23              		.fpu fpv4-sp-d16
  24              		.type	chprintf.constprop.0, %function
  25              	chprintf.constprop.0:
  26              	.LFB300:
  27              		.file 1 "../../lib/e-puck2_main-processor/ChibiOS//os/hal/lib/streams/chprintf.h"
  28              		.loc 1 69 0
  29              		.cfi_startproc
  30              		@ args = 4, pretend = 12, frame = 8
  31              		@ frame_needed = 0, uses_anonymous_args = 1
  32              	.LVL0:
  33 0000 0EB4     		push	{r1, r2, r3}
  34              		.cfi_def_cfa_offset 12
  35              		.cfi_offset 1, -12
  36              		.cfi_offset 2, -8
  37              		.cfi_offset 3, -4
  38 0002 10B5     		push	{r4, lr}
  39              		.cfi_def_cfa_offset 20
  40              		.cfi_offset 4, -20
  41              		.cfi_offset 14, -16
  42 0004 83B0     		sub	sp, sp, #12
  43              		.cfi_def_cfa_offset 32
  44              		.loc 1 69 0
  45 0006 05AA     		add	r2, sp, #20
  46 0008 094C     		ldr	r4, .L6
  47 000a 52F8041B 		ldr	r1, [r2], #4
  48 000e 2368     		ldr	r3, [r4]
  49              		.loc 1 74 0
  50 0010 0848     		ldr	r0, .L6+4
  51              	.LVL1:
  52              		.loc 1 73 0
  53 0012 0092     		str	r2, [sp]
  54              		.loc 1 69 0
  55 0014 0193     		str	r3, [sp, #4]
  56              	.LVL2:
  57              		.loc 1 74 0
ARM GAS  /var/folders/sw/9r4bn5156wxfd2589391fjvr0000gn/T//ccorU2n2.s 			page 2


  58 0016 FFF7FEFF 		bl	chvprintf
  59              	.LVL3:
  60              		.loc 1 78 0
  61 001a 019A     		ldr	r2, [sp, #4]
  62 001c 2368     		ldr	r3, [r4]
  63 001e 9A42     		cmp	r2, r3
  64 0020 04D1     		bne	.L5
  65 0022 03B0     		add	sp, sp, #12
  66              		.cfi_remember_state
  67              		.cfi_def_cfa_offset 20
  68              		@ sp needed
  69 0024 BDE81040 		pop	{r4, lr}
  70              		.cfi_restore 14
  71              		.cfi_restore 4
  72              		.cfi_def_cfa_offset 12
  73 0028 03B0     		add	sp, sp, #12
  74              		.cfi_restore 3
  75              		.cfi_restore 2
  76              		.cfi_restore 1
  77              		.cfi_def_cfa_offset 0
  78 002a 7047     		bx	lr
  79              	.L5:
  80              		.cfi_restore_state
  81 002c FFF7FEFF 		bl	__stack_chk_fail
  82              	.LVL4:
  83              	.L7:
  84              		.align	2
  85              	.L6:
  86 0030 00000000 		.word	__stack_chk_guard
  87 0034 00000000 		.word	SD3
  88              		.cfi_endproc
  89              	.LFE300:
  90              		.size	chprintf.constprop.0, .-chprintf.constprop.0
  91              		.section	.text.moteurs_avance,"ax",%progbits
  92              		.align	1
  93              		.p2align 4,,15
  94              		.global	moteurs_avance
  95              		.syntax unified
  96              		.thumb
  97              		.thumb_func
  98              		.fpu fpv4-sp-d16
  99              		.type	moteurs_avance, %function
 100              	moteurs_avance:
 101              	.LFB294:
 102              		.file 2 "motors_processing.c"
 103              		.loc 2 41 0
 104              		.cfi_startproc
 105              		@ args = 0, pretend = 0, frame = 8
 106              		@ frame_needed = 0, uses_anonymous_args = 0
 107 0000 10B5     		push	{r4, lr}
 108              		.cfi_def_cfa_offset 8
 109              		.cfi_offset 4, -8
 110              		.cfi_offset 14, -4
 111 0002 0A4C     		ldr	r4, .L13
 112 0004 82B0     		sub	sp, sp, #8
 113              		.cfi_def_cfa_offset 16
 114              		.loc 2 41 0
ARM GAS  /var/folders/sw/9r4bn5156wxfd2589391fjvr0000gn/T//ccorU2n2.s 			page 3


 115 0006 2368     		ldr	r3, [r4]
 116 0008 0193     		str	r3, [sp, #4]
 117              		.loc 2 43 0
 118 000a 4FF4E770 		mov	r0, #462
 119 000e FFF7FEFF 		bl	left_motor_set_speed
 120              	.LVL5:
 121              		.loc 2 44 0
 122 0012 019A     		ldr	r2, [sp, #4]
 123 0014 2368     		ldr	r3, [r4]
 124 0016 9A42     		cmp	r2, r3
 125 0018 06D1     		bne	.L12
 126 001a 4FF4E770 		mov	r0, #462
 127              		.loc 2 46 0
 128 001e 02B0     		add	sp, sp, #8
 129              		.cfi_remember_state
 130              		.cfi_def_cfa_offset 8
 131              		@ sp needed
 132 0020 BDE81040 		pop	{r4, lr}
 133              		.cfi_restore 14
 134              		.cfi_restore 4
 135              		.cfi_def_cfa_offset 0
 136              		.loc 2 44 0
 137 0024 FFF7FEBF 		b	right_motor_set_speed
 138              	.LVL6:
 139              	.L12:
 140              		.cfi_restore_state
 141 0028 FFF7FEFF 		bl	__stack_chk_fail
 142              	.LVL7:
 143              	.L14:
 144              		.align	2
 145              	.L13:
 146 002c 00000000 		.word	__stack_chk_guard
 147              		.cfi_endproc
 148              	.LFE294:
 149              		.size	moteurs_avance, .-moteurs_avance
 150              		.section	.text.motors_stop_pos,"ax",%progbits
 151              		.align	1
 152              		.p2align 4,,15
 153              		.global	motors_stop_pos
 154              		.syntax unified
 155              		.thumb
 156              		.thumb_func
 157              		.fpu fpv4-sp-d16
 158              		.type	motors_stop_pos, %function
 159              	motors_stop_pos:
 160              	.LFB295:
 161              		.loc 2 48 0
 162              		.cfi_startproc
 163              		@ args = 0, pretend = 0, frame = 8
 164              		@ frame_needed = 0, uses_anonymous_args = 0
 165 0000 10B5     		push	{r4, lr}
 166              		.cfi_def_cfa_offset 8
 167              		.cfi_offset 4, -8
 168              		.cfi_offset 14, -4
 169 0002 0C4C     		ldr	r4, .L20
 170 0004 82B0     		sub	sp, sp, #8
 171              		.cfi_def_cfa_offset 16
ARM GAS  /var/folders/sw/9r4bn5156wxfd2589391fjvr0000gn/T//ccorU2n2.s 			page 4


 172              		.loc 2 48 0
 173 0006 2368     		ldr	r3, [r4]
 174 0008 0193     		str	r3, [sp, #4]
 175              		.loc 2 50 0
 176 000a 0020     		movs	r0, #0
 177 000c FFF7FEFF 		bl	left_motor_set_speed
 178              	.LVL8:
 179              		.loc 2 51 0
 180 0010 0020     		movs	r0, #0
 181 0012 FFF7FEFF 		bl	right_motor_set_speed
 182              	.LVL9:
 183              		.loc 2 53 0
 184 0016 0020     		movs	r0, #0
 185 0018 FFF7FEFF 		bl	left_motor_set_pos
 186              	.LVL10:
 187              		.loc 2 54 0
 188 001c 019A     		ldr	r2, [sp, #4]
 189 001e 2368     		ldr	r3, [r4]
 190 0020 9A42     		cmp	r2, r3
 191 0022 05D1     		bne	.L19
 192 0024 0020     		movs	r0, #0
 193              		.loc 2 56 0
 194 0026 02B0     		add	sp, sp, #8
 195              		.cfi_remember_state
 196              		.cfi_def_cfa_offset 8
 197              		@ sp needed
 198 0028 BDE81040 		pop	{r4, lr}
 199              		.cfi_restore 14
 200              		.cfi_restore 4
 201              		.cfi_def_cfa_offset 0
 202              		.loc 2 54 0
 203 002c FFF7FEBF 		b	right_motor_set_pos
 204              	.LVL11:
 205              	.L19:
 206              		.cfi_restore_state
 207 0030 FFF7FEFF 		bl	__stack_chk_fail
 208              	.LVL12:
 209              	.L21:
 210              		.align	2
 211              	.L20:
 212 0034 00000000 		.word	__stack_chk_guard
 213              		.cfi_endproc
 214              	.LFE295:
 215              		.size	motors_stop_pos, .-motors_stop_pos
 216              		.global	__aeabi_f2d
 217              		.global	__aeabi_d2iz
 218              		.section	.text.motors_set_position,"ax",%progbits
 219              		.align	1
 220              		.p2align 4,,15
 221              		.global	motors_set_position
 222              		.syntax unified
 223              		.thumb
 224              		.thumb_func
 225              		.fpu fpv4-sp-d16
 226              		.type	motors_set_position, %function
 227              	motors_set_position:
 228              	.LFB293:
ARM GAS  /var/folders/sw/9r4bn5156wxfd2589391fjvr0000gn/T//ccorU2n2.s 			page 5


 229              		.loc 2 12 0
 230              		.cfi_startproc
 231              		@ args = 0, pretend = 0, frame = 16
 232              		@ frame_needed = 0, uses_anonymous_args = 0
 233              	.LVL13:
 234 0000 2DE9F043 		push	{r4, r5, r6, r7, r8, r9, lr}
 235              		.cfi_def_cfa_offset 28
 236              		.cfi_offset 4, -28
 237              		.cfi_offset 5, -24
 238              		.cfi_offset 6, -20
 239              		.cfi_offset 7, -16
 240              		.cfi_offset 8, -12
 241              		.cfi_offset 9, -8
 242              		.cfi_offset 14, -4
 243 0004 2DED068B 		vpush.64	{d8, d9, d10}
 244              		.cfi_def_cfa_offset 52
 245              		.cfi_offset 80, -52
 246              		.cfi_offset 81, -48
 247              		.cfi_offset 82, -44
 248              		.cfi_offset 83, -40
 249              		.cfi_offset 84, -36
 250              		.cfi_offset 85, -32
 251              	.LBB14:
 252              	.LBB15:
 253              		.loc 2 69 0
 254 0008 9FED4D9A 		vldr.32	s18, .L31
 255              	.LBE15:
 256              	.LBE14:
 257              		.loc 2 12 0
 258 000c 4D4D     		ldr	r5, .L31+4
 259              	.LBB19:
 260              	.LBB16:
 261              		.loc 2 69 0
 262 000e 20EE090A 		vmul.f32	s0, s0, s18
 263              	.LVL14:
 264 0012 F2EE0A8A 		vmov.f32	s17, #1.3e+1
 265 0016 C0EE287A 		vdiv.f32	s15, s0, s17
 266              	.LBE16:
 267              	.LBE19:
 268              		.loc 2 12 0
 269 001a 85B0     		sub	sp, sp, #20
 270              		.cfi_def_cfa_offset 72
 271              		.loc 2 12 0
 272 001c 2B68     		ldr	r3, [r5]
 273 001e 0393     		str	r3, [sp, #12]
 274              	.LVL15:
 275 0020 B0EE41AA 		vmov.f32	s20, s2
 276              	.LBB20:
 277              	.LBB17:
 278              		.loc 2 69 0
 279 0024 17EE900A 		vmov	r0, s15
 280              	.LBE17:
 281              	.LBE20:
 282              		.loc 2 12 0
 283 0028 F0EE619A 		vmov.f32	s19, s3
 284 002c B0EE608A 		vmov.f32	s16, s1
 285              	.LBB21:
ARM GAS  /var/folders/sw/9r4bn5156wxfd2589391fjvr0000gn/T//ccorU2n2.s 			page 6


 286              	.LBB18:
 287              		.loc 2 69 0
 288 0030 FFF7FEFF 		bl	__aeabi_f2d
 289              	.LVL16:
 290 0034 41EC100B 		vmov	d0, r0, r1
 291 0038 FFF7FEFF 		bl	round
 292              	.LVL17:
 293 003c 51EC100B 		vmov	r0, r1, d0
 294 0040 FFF7FEFF 		bl	__aeabi_d2iz
 295              	.LVL18:
 296              	.LBE18:
 297              	.LBE21:
 298              	.LBB22:
 299              	.LBB23:
 300 0044 68EE097A 		vmul.f32	s15, s16, s18
 301              	.LBE23:
 302              	.LBE22:
 303              		.loc 2 16 0
 304 0048 07EE100A 		vmov	s14, r0	@ int
 305              	.LBB29:
 306              	.LBB24:
 307              		.loc 2 69 0
 308 004c C7EEA87A 		vdiv.f32	s15, s15, s17
 309              	.LBE24:
 310              	.LBE29:
 311              		.loc 2 16 0
 312 0050 B8EEC78A 		vcvt.f32.s32	s16, s14
 313              	.LVL19:
 314              	.LBB30:
 315              	.LBB25:
 316              		.loc 2 69 0
 317 0054 17EE900A 		vmov	r0, s15
 318 0058 FFF7FEFF 		bl	__aeabi_f2d
 319              	.LVL20:
 320              	.LBE25:
 321              	.LBE30:
 322              	.LBB31:
 323              	.LBB32:
 324 005c 2AEE09AA 		vmul.f32	s20, s20, s18
 325              	.LVL21:
 326              	.LBE32:
 327              	.LBE31:
 328              	.LBB39:
 329              	.LBB26:
 330 0060 41EC100B 		vmov	d0, r0, r1
 331 0064 FFF7FEFF 		bl	round
 332              	.LVL22:
 333              	.LBE26:
 334              	.LBE39:
 335              	.LBB40:
 336              	.LBB33:
 337 0068 CAEE287A 		vdiv.f32	s15, s20, s17
 338              	.LBE33:
 339              	.LBE40:
 340              	.LBB41:
 341              	.LBB27:
 342 006c 57EC106B 		vmov	r6, r7, d0
ARM GAS  /var/folders/sw/9r4bn5156wxfd2589391fjvr0000gn/T//ccorU2n2.s 			page 7


 343              	.LVL23:
 344              	.LBE27:
 345              	.LBE41:
 346              	.LBB42:
 347              	.LBB34:
 348 0070 17EE900A 		vmov	r0, s15
 349 0074 FFF7FEFF 		bl	__aeabi_f2d
 350              	.LVL24:
 351              	.LBE34:
 352              	.LBE42:
 353              	.LBB43:
 354              	.LBB44:
 355 0078 29EE899A 		vmul.f32	s18, s19, s18
 356              	.LBE44:
 357              	.LBE43:
 358              	.LBB49:
 359              	.LBB35:
 360 007c 41EC100B 		vmov	d0, r0, r1
 361 0080 FFF7FEFF 		bl	round
 362              	.LVL25:
 363              	.LBE35:
 364              	.LBE49:
 365              	.LBB50:
 366              	.LBB45:
 367 0084 C9EE287A 		vdiv.f32	s15, s18, s17
 368              	.LBE45:
 369              	.LBE50:
 370              	.LBB51:
 371              	.LBB36:
 372 0088 59EC108B 		vmov	r8, r9, d0
 373              	.LVL26:
 374              	.LBE36:
 375              	.LBE51:
 376              	.LBB52:
 377              	.LBB46:
 378 008c 17EE900A 		vmov	r0, s15
 379 0090 FFF7FEFF 		bl	__aeabi_f2d
 380              	.LVL27:
 381 0094 41EC100B 		vmov	d0, r0, r1
 382 0098 FFF7FEFF 		bl	round
 383              	.LVL28:
 384              	.LBE46:
 385              	.LBE52:
 386              	.LBB53:
 387              	.LBB37:
 388 009c 4946     		mov	r1, r9
 389 009e 4046     		mov	r0, r8
 390              	.LBE37:
 391              	.LBE53:
 392              	.LBB54:
 393              	.LBB47:
 394 00a0 8DED000B 		vstr.64	d0, [sp]
 395              	.LVL29:
 396              	.LBE47:
 397              	.LBE54:
 398              	.LBB55:
 399              	.LBB38:
ARM GAS  /var/folders/sw/9r4bn5156wxfd2589391fjvr0000gn/T//ccorU2n2.s 			page 8


 400 00a4 FFF7FEFF 		bl	__aeabi_d2iz
 401              	.LVL30:
 402              	.LBE38:
 403              	.LBE55:
 404              		.loc 2 19 0
 405 00a8 07EE900A 		vmov	s15, r0	@ int
 406 00ac F8EEE77A 		vcvt.f32.s32	s15, s15
 407              		.loc 2 22 0
 408 00b0 FDEEE77A 		vcvt.s32.f32	s15, s15
 409 00b4 17EE900A 		vmov	r0, s15	@ int
 410 00b8 FFF7FEFF 		bl	left_motor_set_speed
 411              	.LVL31:
 412              	.LBB56:
 413              	.LBB48:
 414              		.loc 2 69 0
 415 00bc 9DED000B 		vldr.64	d0, [sp]
 416 00c0 51EC100B 		vmov	r0, r1, d0
 417 00c4 FFF7FEFF 		bl	__aeabi_d2iz
 418              	.LVL32:
 419              	.LBE48:
 420              	.LBE56:
 421              		.loc 2 20 0
 422 00c8 07EE900A 		vmov	s15, r0	@ int
 423 00cc F8EEE77A 		vcvt.f32.s32	s15, s15
 424              		.loc 2 23 0
 425 00d0 FDEEE77A 		vcvt.s32.f32	s15, s15
 426 00d4 17EE900A 		vmov	r0, s15	@ int
 427 00d8 FFF7FEFF 		bl	right_motor_set_speed
 428              	.LVL33:
 429              	.LBB57:
 430              	.LBB28:
 431              		.loc 2 69 0
 432 00dc 3046     		mov	r0, r6
 433 00de 3946     		mov	r1, r7
 434 00e0 FFF7FEFF 		bl	__aeabi_d2iz
 435              	.LVL34:
 436              	.LBE28:
 437              	.LBE57:
 438              		.loc 2 17 0
 439 00e4 07EE900A 		vmov	s15, r0	@ int
 440 00e8 F8EEE77A 		vcvt.f32.s32	s15, s15
 441 00ec FDEEE77A 		vcvt.s32.f32	s15, s15
 442 00f0 17EE904A 		vmov	r4, s15	@ int
 443 00f4 002C     		cmp	r4, #0
 444 00f6 B8BF     		it	lt
 445 00f8 6442     		rsblt	r4, r4, #0
 446              		.loc 2 25 0
 447 00fa 0DE0     		b	.L23
 448              	.LVL35:
 449              	.L28:
 450              		.loc 2 30 0
 451 00fc FFF7FEFF 		bl	left_motor_get_pos
 452              	.LVL36:
 453 0100 FDEEC87A 		vcvt.s32.f32	s15, s16
 454 0104 0028     		cmp	r0, #0
 455 0106 17EE903A 		vmov	r3, s15	@ int
 456 010a B8BF     		it	lt
ARM GAS  /var/folders/sw/9r4bn5156wxfd2589391fjvr0000gn/T//ccorU2n2.s 			page 9


 457 010c 4042     		rsblt	r0, r0, #0
 458 010e 002B     		cmp	r3, #0
 459 0110 B8BF     		it	lt
 460 0112 5B42     		rsblt	r3, r3, #0
 461 0114 9842     		cmp	r0, r3
 462 0116 06DC     		bgt	.L25
 463              	.L23:
 464              		.loc 2 27 0
 465 0118 FFF7FEFF 		bl	right_motor_get_pos
 466              	.LVL37:
 467 011c 0028     		cmp	r0, #0
 468 011e B8BF     		it	lt
 469 0120 4042     		rsblt	r0, r0, #0
 470 0122 A042     		cmp	r0, r4
 471 0124 EADD     		ble	.L28
 472              	.L25:
 473              		.loc 2 28 0
 474 0126 039A     		ldr	r2, [sp, #12]
 475 0128 2B68     		ldr	r3, [r5]
 476 012a 9A42     		cmp	r2, r3
 477 012c 06D1     		bne	.L30
 478              		.loc 2 39 0
 479 012e 05B0     		add	sp, sp, #20
 480              		.cfi_remember_state
 481              		.cfi_def_cfa_offset 52
 482              	.LVL38:
 483              		@ sp needed
 484 0130 BDEC068B 		vldm	sp!, {d8-d10}
 485              		.cfi_restore 84
 486              		.cfi_restore 85
 487              		.cfi_restore 82
 488              		.cfi_restore 83
 489              		.cfi_restore 80
 490              		.cfi_restore 81
 491              		.cfi_def_cfa_offset 28
 492              	.LVL39:
 493 0134 BDE8F043 		pop	{r4, r5, r6, r7, r8, r9, lr}
 494              		.cfi_restore 14
 495              		.cfi_restore 9
 496              		.cfi_restore 8
 497              		.cfi_restore 7
 498              		.cfi_restore 6
 499              		.cfi_restore 5
 500              		.cfi_restore 4
 501              		.cfi_def_cfa_offset 0
 502              	.LVL40:
 503              		.loc 2 28 0
 504 0138 FFF7FEBF 		b	motors_stop_pos
 505              	.LVL41:
 506              	.L30:
 507              		.cfi_restore_state
 508 013c FFF7FEFF 		bl	__stack_chk_fail
 509              	.LVL42:
 510              	.L32:
 511              		.align	2
 512              	.L31:
 513 0140 00007A44 		.word	1148846080
ARM GAS  /var/folders/sw/9r4bn5156wxfd2589391fjvr0000gn/T//ccorU2n2.s 			page 10


 514 0144 00000000 		.word	__stack_chk_guard
 515              		.cfi_endproc
 516              	.LFE293:
 517              		.size	motors_set_position, .-motors_set_position
 518              		.section	.text.motors_stop_speed,"ax",%progbits
 519              		.align	1
 520              		.p2align 4,,15
 521              		.global	motors_stop_speed
 522              		.syntax unified
 523              		.thumb
 524              		.thumb_func
 525              		.fpu fpv4-sp-d16
 526              		.type	motors_stop_speed, %function
 527              	motors_stop_speed:
 528              	.LFB296:
 529              		.loc 2 58 0
 530              		.cfi_startproc
 531              		@ args = 0, pretend = 0, frame = 8
 532              		@ frame_needed = 0, uses_anonymous_args = 0
 533 0000 10B5     		push	{r4, lr}
 534              		.cfi_def_cfa_offset 8
 535              		.cfi_offset 4, -8
 536              		.cfi_offset 14, -4
 537 0002 094C     		ldr	r4, .L38
 538 0004 82B0     		sub	sp, sp, #8
 539              		.cfi_def_cfa_offset 16
 540              		.loc 2 58 0
 541 0006 2368     		ldr	r3, [r4]
 542 0008 0193     		str	r3, [sp, #4]
 543              		.loc 2 60 0
 544 000a 0020     		movs	r0, #0
 545 000c FFF7FEFF 		bl	left_motor_set_speed
 546              	.LVL43:
 547              		.loc 2 61 0
 548 0010 019A     		ldr	r2, [sp, #4]
 549 0012 2368     		ldr	r3, [r4]
 550 0014 9A42     		cmp	r2, r3
 551 0016 05D1     		bne	.L37
 552 0018 0020     		movs	r0, #0
 553              		.loc 2 64 0
 554 001a 02B0     		add	sp, sp, #8
 555              		.cfi_remember_state
 556              		.cfi_def_cfa_offset 8
 557              		@ sp needed
 558 001c BDE81040 		pop	{r4, lr}
 559              		.cfi_restore 14
 560              		.cfi_restore 4
 561              		.cfi_def_cfa_offset 0
 562              		.loc 2 61 0
 563 0020 FFF7FEBF 		b	right_motor_set_speed
 564              	.LVL44:
 565              	.L37:
 566              		.cfi_restore_state
 567 0024 FFF7FEFF 		bl	__stack_chk_fail
 568              	.LVL45:
 569              	.L39:
 570              		.align	2
ARM GAS  /var/folders/sw/9r4bn5156wxfd2589391fjvr0000gn/T//ccorU2n2.s 			page 11


 571              	.L38:
 572 0028 00000000 		.word	__stack_chk_guard
 573              		.cfi_endproc
 574              	.LFE296:
 575              		.size	motors_stop_speed, .-motors_stop_speed
 576              		.section	.text.cm_to_steps,"ax",%progbits
 577              		.align	1
 578              		.p2align 4,,15
 579              		.global	cm_to_steps
 580              		.syntax unified
 581              		.thumb
 582              		.thumb_func
 583              		.fpu fpv4-sp-d16
 584              		.type	cm_to_steps, %function
 585              	cm_to_steps:
 586              	.LFB297:
 587              		.loc 2 67 0
 588              		.cfi_startproc
 589              		@ args = 0, pretend = 0, frame = 8
 590              		@ frame_needed = 0, uses_anonymous_args = 0
 591              	.LVL46:
 592              		.loc 2 69 0
 593 0000 DFED107A 		vldr.32	s15, .L44
 594 0004 20EE270A 		vmul.f32	s0, s0, s15
 595              	.LVL47:
 596 0008 F2EE0A7A 		vmov.f32	s15, #1.3e+1
 597 000c C0EE277A 		vdiv.f32	s15, s0, s15
 598              		.loc 2 67 0
 599 0010 10B5     		push	{r4, lr}
 600              		.cfi_def_cfa_offset 8
 601              		.cfi_offset 4, -8
 602              		.cfi_offset 14, -4
 603 0012 0D4C     		ldr	r4, .L44+4
 604 0014 82B0     		sub	sp, sp, #8
 605              		.cfi_def_cfa_offset 16
 606              		.loc 2 67 0
 607 0016 2368     		ldr	r3, [r4]
 608 0018 0193     		str	r3, [sp, #4]
 609              	.LVL48:
 610              		.loc 2 69 0
 611 001a 17EE900A 		vmov	r0, s15
 612 001e FFF7FEFF 		bl	__aeabi_f2d
 613              	.LVL49:
 614 0022 41EC100B 		vmov	d0, r0, r1
 615 0026 FFF7FEFF 		bl	round
 616              	.LVL50:
 617 002a 51EC100B 		vmov	r0, r1, d0
 618 002e FFF7FEFF 		bl	__aeabi_d2iz
 619              	.LVL51:
 620              		.loc 2 71 0
 621 0032 019A     		ldr	r2, [sp, #4]
 622 0034 2368     		ldr	r3, [r4]
 623 0036 9A42     		cmp	r2, r3
 624 0038 01D1     		bne	.L43
 625 003a 02B0     		add	sp, sp, #8
 626              		.cfi_remember_state
 627              		.cfi_def_cfa_offset 8
ARM GAS  /var/folders/sw/9r4bn5156wxfd2589391fjvr0000gn/T//ccorU2n2.s 			page 12


 628              		@ sp needed
 629 003c 10BD     		pop	{r4, pc}
 630              	.L43:
 631              		.cfi_restore_state
 632 003e FFF7FEFF 		bl	__stack_chk_fail
 633              	.LVL52:
 634              	.L45:
 635 0042 00BF     		.align	2
 636              	.L44:
 637 0044 00007A44 		.word	1148846080
 638 0048 00000000 		.word	__stack_chk_guard
 639              		.cfi_endproc
 640              	.LFE297:
 641              		.size	cm_to_steps, .-cm_to_steps
 642              		.section	.text.steps_to_cm,"ax",%progbits
 643              		.align	1
 644              		.p2align 4,,15
 645              		.global	steps_to_cm
 646              		.syntax unified
 647              		.thumb
 648              		.thumb_func
 649              		.fpu fpv4-sp-d16
 650              		.type	steps_to_cm, %function
 651              	steps_to_cm:
 652              	.LFB298:
 653              		.loc 2 74 0
 654              		.cfi_startproc
 655              		@ args = 0, pretend = 0, frame = 8
 656              		@ frame_needed = 0, uses_anonymous_args = 0
 657              	.LVL53:
 658 0000 00B5     		push	{lr}
 659              		.cfi_def_cfa_offset 4
 660              		.cfi_offset 14, -4
 661 0002 0A4B     		ldr	r3, .L50
 662              		.loc 2 76 0
 663 0004 9FED0A7A 		vldr.32	s14, .L50+4
 664              		.loc 2 74 0
 665 0008 1A68     		ldr	r2, [r3]
 666 000a 83B0     		sub	sp, sp, #12
 667              		.cfi_def_cfa_offset 16
 668              		.loc 2 76 0
 669 000c F2EE0A7A 		vmov.f32	s15, #1.3e+1
 670              		.loc 2 74 0
 671 0010 0192     		str	r2, [sp, #4]
 672              	.LVL54:
 673              		.loc 2 78 0
 674 0012 019A     		ldr	r2, [sp, #4]
 675 0014 1B68     		ldr	r3, [r3]
 676              		.loc 2 76 0
 677 0016 20EE270A 		vmul.f32	s0, s0, s15
 678              	.LVL55:
 679              		.loc 2 78 0
 680 001a 9A42     		cmp	r2, r3
 681 001c 80EE070A 		vdiv.f32	s0, s0, s14
 682              	.LVL56:
 683 0020 02D1     		bne	.L49
 684 0022 03B0     		add	sp, sp, #12
ARM GAS  /var/folders/sw/9r4bn5156wxfd2589391fjvr0000gn/T//ccorU2n2.s 			page 13


 685              		.cfi_remember_state
 686              		.cfi_def_cfa_offset 4
 687              		@ sp needed
 688 0024 5DF804FB 		ldr	pc, [sp], #4
 689              	.L49:
 690              		.cfi_restore_state
 691 0028 FFF7FEFF 		bl	__stack_chk_fail
 692              	.LVL57:
 693              	.L51:
 694              		.align	2
 695              	.L50:
 696 002c 00000000 		.word	__stack_chk_guard
 697 0030 00007A44 		.word	1148846080
 698              		.cfi_endproc
 699              	.LFE298:
 700              		.size	steps_to_cm, .-steps_to_cm
 701              		.section	.text.change_order,"ax",%progbits
 702              		.align	1
 703              		.p2align 4,,15
 704              		.global	change_order
 705              		.syntax unified
 706              		.thumb
 707              		.thumb_func
 708              		.fpu fpv4-sp-d16
 709              		.type	change_order, %function
 710              	change_order:
 711              	.LFB299:
 712              		.loc 2 81 0
 713              		.cfi_startproc
 714              		@ args = 0, pretend = 0, frame = 8
 715              		@ frame_needed = 0, uses_anonymous_args = 0
 716              	.LVL58:
 717 0000 70B5     		push	{r4, r5, r6, lr}
 718              		.cfi_def_cfa_offset 16
 719              		.cfi_offset 4, -16
 720              		.cfi_offset 5, -12
 721              		.cfi_offset 6, -8
 722              		.cfi_offset 14, -4
 723 0002 2E4D     		ldr	r5, .L75
 724 0004 82B0     		sub	sp, sp, #8
 725              		.cfi_def_cfa_offset 24
 726              		.loc 2 81 0
 727 0006 2B68     		ldr	r3, [r5]
 728 0008 0193     		str	r3, [sp, #4]
 729              	.LVL59:
 730 000a 0E46     		mov	r6, r1
 731              		.loc 2 85 0
 732 000c 0446     		mov	r4, r0
 733 000e 40B9     		cbnz	r0, .L53
 734              		.loc 2 86 0
 735 0010 0229     		cmp	r1, #2
 736 0012 13D9     		bls	.L68
 737              	.L65:
 738              		.loc 2 123 0
 739 0014 0020     		movs	r0, #0
 740              	.LVL60:
 741              	.L54:
ARM GAS  /var/folders/sw/9r4bn5156wxfd2589391fjvr0000gn/T//ccorU2n2.s 			page 14


 742              		.loc 2 124 0
 743 0016 019A     		ldr	r2, [sp, #4]
 744 0018 2B68     		ldr	r3, [r5]
 745 001a 9A42     		cmp	r2, r3
 746 001c 4BD1     		bne	.L69
 747 001e 02B0     		add	sp, sp, #8
 748              		.cfi_remember_state
 749              		.cfi_def_cfa_offset 16
 750              		@ sp needed
 751 0020 70BD     		pop	{r4, r5, r6, pc}
 752              	.LVL61:
 753              	.L53:
 754              		.cfi_restore_state
 755              		.loc 2 92 0
 756 0022 0128     		cmp	r0, #1
 757 0024 16D0     		beq	.L70
 758              		.loc 2 104 0
 759 0026 0228     		cmp	r0, #2
 760 0028 27D0     		beq	.L71
 761              		.loc 2 111 0
 762 002a F1B1     		cbz	r1, .L72
 763              		.loc 2 120 0
 764 002c 0B46     		mov	r3, r1
 765 002e 0246     		mov	r2, r0
 766 0030 2349     		ldr	r1, .L75+4
 767              	.LVL62:
 768 0032 2448     		ldr	r0, .L75+8
 769              	.LVL63:
 770 0034 FFF7FEFF 		bl	chprintf.constprop.0
 771              	.LVL64:
 772              		.loc 2 121 0
 773 0038 2046     		mov	r0, r4
 774 003a ECE7     		b	.L54
 775              	.LVL65:
 776              	.L68:
 777              		.loc 2 87 0
 778 003c FFF7FEFF 		bl	right_motor_get_pos
 779              	.LVL66:
 780 0040 10B9     		cbnz	r0, .L56
 781              		.loc 2 87 0 is_stmt 0 discriminator 1
 782 0042 FFF7FEFF 		bl	left_motor_get_pos
 783              	.LVL67:
 784 0046 B0B1     		cbz	r0, .L67
 785              	.L56:
 786              		.loc 2 88 0 is_stmt 1
 787 0048 1F49     		ldr	r1, .L75+12
 788 004a 1E48     		ldr	r0, .L75+8
 789 004c FFF7FEFF 		bl	chprintf.constprop.0
 790              	.LVL68:
 791 0050 3046     		mov	r0, r6
 792 0052 E0E7     		b	.L54
 793              	.LVL69:
 794              	.L70:
 795              		.loc 2 94 0 discriminator 1
 796 0054 11F0FD04 		ands	r4, r1, #253
 797 0058 19D0     		beq	.L73
 798              		.loc 2 102 0
ARM GAS  /var/folders/sw/9r4bn5156wxfd2589391fjvr0000gn/T//ccorU2n2.s 			page 15


 799 005a 0129     		cmp	r1, #1
 800 005c DAD1     		bne	.L65
 801              		.loc 2 103 0
 802 005e 1B49     		ldr	r1, .L75+16
 803              	.LVL70:
 804 0060 1848     		ldr	r0, .L75+8
 805              	.LVL71:
 806 0062 FFF7FEFF 		bl	chprintf.constprop.0
 807              	.LVL72:
 808              		.loc 2 123 0
 809 0066 0020     		movs	r0, #0
 810 0068 D5E7     		b	.L54
 811              	.LVL73:
 812              	.L72:
 813              		.loc 2 112 0
 814 006a 0246     		mov	r2, r0
 815 006c 0B46     		mov	r3, r1
 816 006e 1548     		ldr	r0, .L75+8
 817              	.LVL74:
 818 0070 1749     		ldr	r1, .L75+20
 819              	.LVL75:
 820 0072 FFF7FEFF 		bl	chprintf.constprop.0
 821              	.LVL76:
 822              	.L67:
 823              		.loc 2 123 0
 824 0076 3046     		mov	r0, r6
 825 0078 CDE7     		b	.L54
 826              	.LVL77:
 827              	.L71:
 828              		.loc 2 106 0
 829 007a 0229     		cmp	r1, #2
 830 007c 15D0     		beq	.L74
 831              		.loc 2 109 0
 832 007e 0129     		cmp	r1, #1
 833 0080 C8D1     		bne	.L65
 834              		.loc 2 110 0
 835 0082 1449     		ldr	r1, .L75+24
 836              	.LVL78:
 837 0084 0F48     		ldr	r0, .L75+8
 838              	.LVL79:
 839 0086 FFF7FEFF 		bl	chprintf.constprop.0
 840              	.LVL80:
 841              		.loc 2 123 0
 842 008a 0020     		movs	r0, #0
 843 008c C3E7     		b	.L54
 844              	.LVL81:
 845              	.L73:
 846              		.loc 2 95 0
 847 008e FFF7FEFF 		bl	right_motor_get_pos
 848              	.LVL82:
 849 0092 FFF7FEFF 		bl	left_motor_get_pos
 850              	.LVL83:
 851              		.loc 2 96 0
 852 0096 FFF7FEFF 		bl	update_map_position
 853              	.LVL84:
 854              		.loc 2 99 0
 855 009a 2046     		mov	r0, r4
ARM GAS  /var/folders/sw/9r4bn5156wxfd2589391fjvr0000gn/T//ccorU2n2.s 			page 16


 856 009c FFF7FEFF 		bl	right_motor_set_pos
 857              	.LVL85:
 858              		.loc 2 100 0
 859 00a0 2046     		mov	r0, r4
 860 00a2 FFF7FEFF 		bl	left_motor_set_pos
 861              	.LVL86:
 862              		.loc 2 101 0
 863 00a6 3046     		mov	r0, r6
 864 00a8 B5E7     		b	.L54
 865              	.LVL87:
 866              	.L74:
 867              		.loc 2 107 0
 868 00aa 0B49     		ldr	r1, .L75+28
 869              	.LVL88:
 870 00ac 0548     		ldr	r0, .L75+8
 871              	.LVL89:
 872 00ae FFF7FEFF 		bl	chprintf.constprop.0
 873              	.LVL90:
 874              		.loc 2 108 0
 875 00b2 3046     		mov	r0, r6
 876 00b4 AFE7     		b	.L54
 877              	.L69:
 878              		.loc 2 124 0
 879 00b6 FFF7FEFF 		bl	__stack_chk_fail
 880              	.LVL91:
 881              	.L76:
 882 00ba 00BF     		.align	2
 883              	.L75:
 884 00bc 00000000 		.word	__stack_chk_guard
 885 00c0 C4000000 		.word	.LC5
 886 00c4 00000000 		.word	SD3
 887 00c8 00000000 		.word	.LC0
 888 00cc 20000000 		.word	.LC1
 889 00d0 7C000000 		.word	.LC4
 890 00d4 50000000 		.word	.LC3
 891 00d8 38000000 		.word	.LC2
 892              		.cfi_endproc
 893              	.LFE299:
 894              		.size	change_order, .-change_order
 895              		.section	.rodata.change_order.str1.4,"aMS",%progbits,1
 896              		.align	2
 897              	.LC0:
 898 0000 6572726F 		.ascii	"error arret positon non nulle\012\000"
 898      72206172 
 898      72657420 
 898      706F7369 
 898      746F6E20 
 899 001f 00       		.space	1
 900              	.LC1:
 901 0020 4156414E 		.ascii	"AVANCE deja en cours\012\000"
 901      43452064 
 901      656A6120 
 901      656E2063 
 901      6F757273 
 902 0036 0000     		.space	2
 903              	.LC2:
 904 0038 544F5552 		.ascii	"TOURNE deja en cours\012\000"
ARM GAS  /var/folders/sw/9r4bn5156wxfd2589391fjvr0000gn/T//ccorU2n2.s 			page 17


 904      4E452064 
 904      656A6120 
 904      656E2063 
 904      6F757273 
 905 004e 0000     		.space	2
 906              	.LC3:
 907 0050 52656675 		.ascii	"Refus de AVANCE car TOURNE deja en cours\012\000"
 907      73206465 
 907      20415641 
 907      4E434520 
 907      63617220 
 908 007a 0000     		.space	2
 909              	.LC4:
 910 007c 54656E74 		.ascii	"Tentative d'ARRET alors que TOURNE en cours!! previ"
 910      61746976 
 910      65206427 
 910      41525245 
 910      5420616C 
 911 00af 6F75733D 		.ascii	"ous=%d , next=%d\012\000"
 911      2564202C 
 911      206E6578 
 911      743D2564 
 911      0A00
 912 00c1 000000   		.space	3
 913              	.LC5:
 914 00c4 4552524F 		.ascii	"ERROR aucune condition de change order n'a ete pris"
 914      52206175 
 914      63756E65 
 914      20636F6E 
 914      64697469 
 915 00f7 20656E20 		.ascii	" en compte\012!!! previous=%d , next=%d\012\000"
 915      636F6D70 
 915      74650A21 
 915      21212070 
 915      72657669 
 916              		.text
 917              	.Letext0:
 918              		.file 3 "/Applications/Eclipse_e-puck2.app/Contents/Eclipse_e-puck2/Tools/gcc-arm-none-eabi-7-2017
 919              		.file 4 "/Applications/Eclipse_e-puck2.app/Contents/Eclipse_e-puck2/Tools/gcc-arm-none-eabi-7-2017
 920              		.file 5 "/Applications/Eclipse_e-puck2.app/Contents/Eclipse_e-puck2/Tools/gcc-arm-none-eabi-7-2017
 921              		.file 6 "../../lib/e-puck2_main-processor/ChibiOS//os/rt/ports/ARMCMx/compilers/GCC/chtypes.h"
 922              		.file 7 "../../lib/e-puck2_main-processor/ChibiOS//os/rt/include/chsystypes.h"
 923              		.file 8 "../../lib/e-puck2_main-processor/ChibiOS//os/rt/include/chschd.h"
 924              		.file 9 "../../lib/e-puck2_main-processor/ChibiOS//os/ext/CMSIS/include/core_cm4.h"
 925              		.file 10 "../../lib/e-puck2_main-processor/ChibiOS//os/ext/CMSIS/ST/system_stm32f4xx.h"
 926              		.file 11 "../../lib/e-puck2_main-processor/ChibiOS//os/ext/CMSIS/ST/stm32f407xx.h"
 927              		.file 12 "../../lib/e-puck2_main-processor/ChibiOS//os/rt/ports/ARMCMx/chcore.h"
 928              		.file 13 "../../lib/e-puck2_main-processor/ChibiOS//os/rt/ports/ARMCMx/chcore_v7m.h"
 929              		.file 14 "../../lib/e-puck2_main-processor/ChibiOS//os/rt/include/chdebug.h"
 930              		.file 15 "../../lib/e-puck2_main-processor/ChibiOS//os/rt/include/chtm.h"
 931              		.file 16 "../../lib/e-puck2_main-processor/ChibiOS//os/rt/include/chstats.h"
 932              		.file 17 "../../lib/e-puck2_main-processor/ChibiOS//os/rt/include/chsem.h"
 933              		.file 18 "../../lib/e-puck2_main-processor/ChibiOS//os/rt/include/chmtx.h"
 934              		.file 19 "../../lib/e-puck2_main-processor/ChibiOS//os/rt/include/chregistry.h"
 935              		.file 20 "../../lib/e-puck2_main-processor/ChibiOS//os/rt/include/chevents.h"
 936              		.file 21 "../../lib/e-puck2_main-processor/ChibiOS//os/rt/include/chqueues.h"
 937              		.file 22 "../../lib/e-puck2_main-processor/ChibiOS//os/rt/include/chstreams.h"
ARM GAS  /var/folders/sw/9r4bn5156wxfd2589391fjvr0000gn/T//ccorU2n2.s 			page 18


 938              		.file 23 "../../lib/e-puck2_main-processor/ChibiOS//os/hal/ports/STM32/STM32F4xx/stm32_dma.h"
 939              		.file 24 "../../lib/e-puck2_main-processor/ChibiOS//os/hal/include/hal_ioblock.h"
 940              		.file 25 "../../lib/e-puck2_main-processor/ChibiOS//os/hal/ports/STM32/LLD/GPIOv2/pal_lld.h"
 941              		.file 26 "../../lib/e-puck2_main-processor/ChibiOS//os/hal/include/adc.h"
 942              		.file 27 "../../lib/e-puck2_main-processor/ChibiOS//os/hal/ports/STM32/STM32F4xx/adc_lld.h"
 943              		.file 28 "../../lib/e-puck2_main-processor/ChibiOS//os/hal/include/can.h"
 944              		.file 29 "../../lib/e-puck2_main-processor/ChibiOS//os/hal/ports/STM32/LLD/can_lld.h"
 945              		.file 30 "../../lib/e-puck2_main-processor/ChibiOS//os/hal/include/dac.h"
 946              		.file 31 "../../lib/e-puck2_main-processor/ChibiOS//os/hal/ports/STM32/LLD/DACv1/dac_lld.h"
 947              		.file 32 "../../lib/e-puck2_main-processor/ChibiOS//os/hal/include/ext.h"
 948              		.file 33 "../../lib/e-puck2_main-processor/ChibiOS//os/hal/ports/STM32/LLD/ext_lld.h"
 949              		.file 34 "../../lib/e-puck2_main-processor/ChibiOS//os/hal/include/gpt.h"
 950              		.file 35 "../../lib/e-puck2_main-processor/ChibiOS//os/hal/ports/STM32/LLD/TIMv1/gpt_lld.h"
 951              		.file 36 "../../lib/e-puck2_main-processor/ChibiOS//os/hal/ports/STM32/LLD/TIMv1/stm32_tim.h"
 952              		.file 37 "../../lib/e-puck2_main-processor/ChibiOS//os/hal/include/i2c.h"
 953              		.file 38 "../../lib/e-puck2_main-processor/ChibiOS//os/hal/ports/STM32/LLD/I2Cv1/i2c_lld.h"
 954              		.file 39 "../../lib/e-puck2_main-processor/ChibiOS//os/hal/include/i2s.h"
 955              		.file 40 "../../lib/e-puck2_main-processor/ChibiOS//os/hal/ports/STM32/LLD/SPIv1/i2s_lld.h"
 956              		.file 41 "../../lib/e-puck2_main-processor/ChibiOS//os/hal/include/pwm.h"
 957              		.file 42 "../../lib/e-puck2_main-processor/ChibiOS//os/hal/ports/STM32/LLD/TIMv1/pwm_lld.h"
 958              		.file 43 "../../lib/e-puck2_main-processor/ChibiOS//os/hal/include/serial.h"
 959              		.file 44 "../../lib/e-puck2_main-processor/ChibiOS//os/hal/ports/STM32/LLD/USARTv1/serial_lld.h"
 960              		.file 45 "../../lib/e-puck2_main-processor/ChibiOS//os/hal/include/sdc.h"
 961              		.file 46 "../../lib/e-puck2_main-processor/ChibiOS//os/hal/ports/STM32/LLD/sdc_lld.h"
 962              		.file 47 "../../lib/e-puck2_main-processor/ChibiOS//os/hal/include/spi.h"
 963              		.file 48 "../../lib/e-puck2_main-processor/ChibiOS//os/hal/ports/STM32/LLD/SPIv1/spi_lld.h"
 964              		.file 49 "../../lib/e-puck2_main-processor/ChibiOS//os/hal/include/usb.h"
 965              		.file 50 "../../lib/e-puck2_main-processor/ChibiOS//os/hal/ports/STM32/LLD/OTGv1/usb_lld.h"
 966              		.file 51 "../../lib/e-puck2_main-processor/ChibiOS//os/hal/ports/STM32/LLD/OTGv1/stm32_otg.h"
 967              		.file 52 "/Applications/Eclipse_e-puck2.app/Contents/Eclipse_e-puck2/Tools/gcc-arm-none-eabi-7-201
 968              		.file 53 "/Applications/Eclipse_e-puck2.app/Contents/Eclipse_e-puck2/Tools/gcc-arm-none-eabi-7-201
 969              		.file 54 "/Applications/Eclipse_e-puck2.app/Contents/Eclipse_e-puck2/Tools/gcc-arm-none-eabi-7-201
 970              		.file 55 "/Applications/Eclipse_e-puck2.app/Contents/Eclipse_e-puck2/Tools/gcc-arm-none-eabi-7-201
 971              		.file 56 "../../lib/e-puck2_main-processor/ChibiOS_ext/os/hal/include/../ports/STM32/STM32F4xx/dcm
 972              		.file 57 "/Applications/Eclipse_e-puck2.app/Contents/Eclipse_e-puck2/Tools/gcc-arm-none-eabi-7-201
 973              		.file 58 "../../lib/e-puck2_main-processor/src/msgbus/messagebus.h"
 974              		.file 59 "/Applications/Eclipse_e-puck2.app/Contents/Eclipse_e-puck2/Tools/gcc-arm-none-eabi-7-201
 975              		.file 60 "../../lib/e-puck2_main-processor/src/parameter/parameter.h"
 976              		.file 61 "/Applications/Eclipse_e-puck2.app/Contents/Eclipse_e-puck2/Tools/gcc-arm-none-eabi-7-201
 977              		.file 62 "<built-in>"
 978              		.file 63 "./main.h"
 979              		.file 64 "./game_management.h"
 980              		.file 65 "../../lib/e-puck2_main-processor/src/motors.h"